

Microchip MPLAB XC8 Assembler V2.45 build 20230818022343 
                                                                                               Sun Oct 01 21:20:23 2023

Microchip MPLAB XC8 C Compiler v2.45 (Free license) build 20230818022343 Og1 
     1                           	processor	18F4620
     2                           	fnconf	rparam,??,?,0
     3                           	pagewidth 120
     4                           	opt	flic
     5                           	psect	idataCOMRAM,global,class=CODE,delta=1,noexec
     6                           	psect	idataBANK0,global,class=CODE,delta=1,noexec
     7                           	psect	smallconst,global,reloc=2,class=SMALLCONST,delta=1,noexec
     8                           	psect	nvBANK0,global,class=BANK0,space=1,delta=1,lowdata,noexec
     9                           	psect	cinit,global,reloc=2,class=CODE,delta=1
    10                           	psect	bssCOMRAM,global,class=COMRAM,space=1,delta=1,lowdata,noexec
    11                           	psect	dataCOMRAM,global,class=COMRAM,space=1,delta=1,lowdata,noexec
    12                           	psect	bssBANK0,global,class=BANK0,space=1,delta=1,lowdata,noexec
    13                           	psect	dataBANK0,global,class=BANK0,space=1,delta=1,lowdata,noexec
    14                           	psect	cstackCOMRAM,global,class=COMRAM,space=1,delta=1,lowdata,noexec
    15                           	psect	text0,global,reloc=2,class=CODE,delta=1
    16                           	psect	text1,global,reloc=2,class=CODE,delta=1
    17                           	psect	text2,global,reloc=2,class=CODE,delta=1
    18                           	psect	text3,global,reloc=2,class=CODE,delta=1
    19                           	psect	text4,global,reloc=2,class=CODE,delta=1
    20                           	psect	text5,global,reloc=2,class=CODE,delta=1
    21                           	psect	text6,global,reloc=2,class=CODE,delta=1
    22                           	psect	text7,global,reloc=2,class=CODE,delta=1
    23                           	psect	text8,global,reloc=2,class=CODE,delta=1,group=3
    24                           	psect	text9,global,reloc=2,class=CODE,delta=1,group=1
    25                           	psect	text10,global,reloc=2,class=CODE,delta=1,group=1
    26                           	psect	text11,global,reloc=2,class=CODE,delta=1,group=3
    27                           	psect	text12,global,reloc=2,class=CODE,delta=1,group=3
    28                           	psect	text13,global,reloc=2,class=CODE,delta=1,group=3
    29                           	psect	text14,global,reloc=2,class=CODE,delta=1,group=2
    30                           	psect	text15,global,reloc=2,class=CODE,delta=1,group=2
    31                           	psect	text16,global,reloc=2,class=CODE,delta=1,group=3
    32                           	psect	text17,global,reloc=2,class=CODE,delta=1
    33                           	psect	text18,global,reloc=2,class=CODE,delta=1
    34                           	psect	text19,global,reloc=2,class=CODE,delta=1
    35                           	psect	text20,global,reloc=2,class=CODE,delta=1
    36                           	psect	text21,global,reloc=2,class=CODE,delta=1
    37                           	psect	text22,global,reloc=2,class=CODE,delta=1
    38                           	psect	text23,global,reloc=2,class=CODE,delta=1
    39                           	psect	text24,global,reloc=2,class=CODE,delta=1
    40                           	psect	text25,global,reloc=2,class=CODE,delta=1
    41                           	psect	text26,global,reloc=2,class=CODE,delta=1
    42                           	psect	text27,global,reloc=2,class=CODE,delta=1
    43                           	psect	text28,global,reloc=2,class=CODE,delta=1,group=2
    44                           	psect	text29,global,reloc=2,class=CODE,delta=1
    45                           	psect	text30,global,reloc=2,class=CODE,delta=1,group=2
    46                           	psect	intsave_regs,global,class=BIGRAM,space=1,delta=1,noexec
    47                           	psect	rparam,global,class=COMRAM,space=1,delta=1,noexec
    48                           	psect	config,global,abs,ovrld,class=CONFIG,space=4,delta=1,noexec
    49   000000                     
    50                           ; Generated 23/03/2023 GMT
    51                           ; 
    52                           ; Copyright © 2023, Microchip Technology Inc. and its subsidiaries ("Microchip")
    53                           ; All rights reserved.
    54                           ; 
    55                           ; This software is developed by Microchip Technology Inc. and its subsidiaries ("Microch
      +                          ip").
    56                           ; 
    57                           ; Redistribution and use in source and binary forms, with or without modification, are
    58                           ; permitted provided that the following conditions are met:
    59                           ; 
    60                           ;     1. Redistributions of source code must retain the above copyright notice, this lis
      +                          t of
    61                           ;        conditions and the following disclaimer.
    62                           ; 
    63                           ;     2. Redistributions in binary form must reproduce the above copyright notice, this 
      +                          list
    64                           ;        of conditions and the following disclaimer in the documentation and/or other
    65                           ;        materials provided with the distribution. Publication is not required when
    66                           ;        this file is used in an embedded application.
    67                           ; 
    68                           ;     3. Microchip's name may not be used to endorse or promote products derived from th
      +                          is
    69                           ;        software without specific prior written permission.
    70                           ; 
    71                           ; THIS SOFTWARE IS PROVIDED BY MICROCHIP "AS IS" AND ANY EXPRESS OR IMPLIED WARRANTIES,
    72                           ; INCLUDING, BUT NOT LIMITED TO, THE IMPLIED WARRANTIES OF MERCHANTABILITY AND FITNESS F
      +                          OR
    73                           ; PURPOSE ARE DISCLAIMED.  IN NO EVENT SHALL MICROCHIP BE LIABLE FOR ANY DIRECT, INDIREC
      +                          T,
    74                           ; INCIDENTAL, SPECIAL, EXEMPLARY, OR CONSEQUENTIAL DAMAGES (INCLUDING BUT NOT LIMITED TO
    75                           ; PROCUREMENT OF SUBSTITUTE GOODS OR SERVICES; LOSS OF USE, DATA OR PROFITS; OR BUSINESS
    76                           ; INTERRUPTION) HOWSOEVER CAUSED AND ON ANY THEORY OF LIABILITY, WHETHER IN CONTRACT, ST
      +                          RICT
    77                           ; LIABILITY, OR TORT (INCLUDING NEGLIGENCE OR OTHERWISE) ARISING IN ANY WAY OUT OF THE U
      +                          SE OF
    78                           ; THIS SOFTWARE, EVEN IF ADVISED OF THE POSSIBILITY OF SUCH DAMAGE.
    79                           ; 
    80                           ; 
    81                           ; Code-generator required, PIC18F4620 Definitions
    82                           ; 
    83                           ; SFR Addresses
    84   000000                     
    85                           	psect	idataCOMRAM
    86   002272                     __pidataCOMRAM:
    87                           	callstack 0
    88                           
    89                           ;initializer for _lat_registers
    90   002272  89                 	db	137
    91   002273  0F                 	db	15
    92   002274  8A                 	db	138
    93   002275  0F                 	db	15
    94   002276  8B                 	db	139
    95   002277  0F                 	db	15
    96   002278  8C                 	db	140
    97   002279  0F                 	db	15
    98   00227A  8D                 	db	141
    99   00227B  0F                 	db	15
   100                           
   101                           ;initializer for _tris_registers
   102   00227C  92                 	db	146
   103   00227D  0F                 	db	15
   104   00227E  93                 	db	147
   105   00227F  0F                 	db	15
   106   002280  94                 	db	148
   107   002281  0F                 	db	15
   108   002282  95                 	db	149
   109   002283  0F                 	db	15
   110   002284  96                 	db	150
   111   002285  0F                 	db	15
   112                           
   113                           ;initializer for _keypad_1
   114   002286  03                 	db	3
   115   002287  0B                 	db	11
   116   002288  13                 	db	19
   117   002289  1B                 	db	27
   118   00228A  63                 	db	99
   119   00228B  6B                 	db	107
   120   00228C  73                 	db	115
   121   00228D  7B                 	db	123
   122                           
   123                           ;initializer for _lcd_1
   124   00228E  02                 	db	2
   125   00228F  0A                 	db	10
   126   002290  12                 	db	18
   127   002291  1A                 	db	26
   128   002292  22                 	db	34
   129   002293  2A                 	db	42
   130                           
   131                           	psect	idataBANK0
   132   0022AE                     __pidataBANK0:
   133                           	callstack 0
   134                           
   135                           ;initializer for _port_registers
   136   0022AE  80                 	db	128
   137   0022AF  0F                 	db	15
   138   0022B0  81                 	db	129
   139   0022B1  0F                 	db	15
   140   0022B2  82                 	db	130
   141   0022B3  0F                 	db	15
   142   0022B4  83                 	db	131
   143   0022B5  0F                 	db	15
   144   0022B6  84                 	db	132
   145   0022B7  0F                 	db	15
   146                           
   147                           	psect	smallconst
   148   001000                     __psmallconst:
   149                           	callstack 0
   150   001000  00                 	db	0
   151   001001                     _btn_values:
   152                           	callstack 0
   153   001001  37                 	db	55
   154   001002  38                 	db	56
   155   001003  39                 	db	57
   156   001004  2F                 	db	47
   157   001005  34                 	db	52
   158   001006  35                 	db	53
   159   001007  36                 	db	54
   160   001008  2A                 	db	42
   161   001009  31                 	db	49
   162   00100A  32                 	db	50
   163   00100B  33                 	db	51
   164   00100C  2D                 	db	45
   165   00100D  23                 	db	35
   166   00100E  30                 	db	48
   167   00100F  3D                 	db	61
   168   001010  2B                 	db	43
   169   001011                     __end_of_btn_values:
   170                           	callstack 0
   171   001011                     STR_6:
   172   001011  45                 	db	69	;'E'
   173   001012  6E                 	db	110	;'n'
   174   001013  67                 	db	103	;'g'
   175   001014  2E                 	db	46
   176   001015  20                 	db	32
   177   001016  4B                 	db	75	;'K'
   178   001017  68                 	db	104	;'h'
   179   001018  61                 	db	97	;'a'
   180   001019  6C                 	db	108	;'l'
   181   00101A  65                 	db	101	;'e'
   182   00101B  64                 	db	100	;'d'
   183   00101C  20                 	db	32
   184   00101D  46                 	db	70	;'F'
   185   00101E  61                 	db	97	;'a'
   186   00101F  72                 	db	114	;'r'
   187   001020  72                 	db	114	;'r'
   188   001021  61                 	db	97	;'a'
   189   001022  67                 	db	103	;'g'
   190   001023  00                 	db	0
   191   001024                     STR_4:
   192   001024  53                 	db	83	;'S'
   193   001025  69                 	db	105	;'i'
   194   001026  6D                 	db	109	;'m'
   195   001027  70                 	db	112	;'p'
   196   001028  6C                 	db	108	;'l'
   197   001029  65                 	db	101	;'e'
   198   00102A  20                 	db	32
   199   00102B  43                 	db	67	;'C'
   200   00102C  61                 	db	97	;'a'
   201   00102D  6C                 	db	108	;'l'
   202   00102E  63                 	db	99	;'c'
   203   00102F  75                 	db	117	;'u'
   204   001030  6C                 	db	108	;'l'
   205   001031  61                 	db	97	;'a'
   206   001032  74                 	db	116	;'t'
   207   001033  6F                 	db	111	;'o'
   208   001034  72                 	db	114	;'r'
   209   001035  00                 	db	0
   210   001036                     STR_5:
   211   001036  4D                 	db	77	;'M'
   212   001037  61                 	db	97	;'a'
   213   001038  64                 	db	100	;'d'
   214   001039  65                 	db	101	;'e'
   215   00103A  20                 	db	32
   216   00103B  42                 	db	66	;'B'
   217   00103C  79                 	db	121	;'y'
   218   00103D  00                 	db	0
   219   00103E                     STR_1:
   220   00103E  25                 	db	37
   221   00103F  69                 	db	105	;'i'
   222   001040  00                 	db	0
   223   001041  00                 	db	0	; dummy byte at the end
   224   000000                     
   225                           	psect	nvBANK0
   226   0000AA                     __pnvBANK0:
   227                           	callstack 0
   228   0000AA                     _ret:
   229                           	callstack 0
   230   0000AA                     	ds	1
   231   000000                     _PORTE	set	3972
   232   000000                     _PORTD	set	3971
   233   000000                     _PORTC	set	3970
   234   000000                     _PORTB	set	3969
   235   000000                     _PORTA	set	3968
   236   000000                     _LATA	set	3977
   237   000000                     _TRISA	set	3986
   238   000000                     _TRISE	set	3990
   239   000000                     _TRISD	set	3989
   240   000000                     _TRISC	set	3988
   241   000000                     _TRISB	set	3987
   242   000000                     _LATE	set	3981
   243   000000                     _LATD	set	3980
   244   000000                     _LATC	set	3979
   245   000000                     _LATB	set	3978
   246                           
   247                           ; #config settings
   248                           
   249                           	psect	cinit
   250   001F20                     __pcinit:
   251                           	callstack 0
   252   001F20                     start_initialization:
   253                           	callstack 0
   254   001F20                     __initialization:
   255                           	callstack 0
   256                           
   257                           ; Initialize objects allocated to BANK0 (10 bytes)
   258                           ; load TBLPTR registers with __pidataBANK0
   259   001F20  0EAE               	movlw	low __pidataBANK0
   260   001F22  6EF6               	movwf	tblptrl,c
   261   001F24  0E22               	movlw	high __pidataBANK0
   262   001F26  6EF7               	movwf	tblptrh,c
   263   001F28  0E00               	movlw	low (__pidataBANK0 shr (0+16))
   264   001F2A  6EF8               	movwf	tblptru,c
   265   001F2C  EE00  F0A0         	lfsr	0,__pdataBANK0
   266   001F30  EE10 F00A          	lfsr	1,10
   267   001F34                     copy_data0:
   268   001F34  0009               	tblrd		*+
   269   001F36  CFF5 FFEE          	movff	tablat,postinc0
   270   001F3A  50E5               	movf	postdec1,w,c
   271   001F3C  50E1               	movf	fsr1l,w,c
   272   001F3E  E1FA               	bnz	copy_data0
   273                           
   274                           ; Initialize objects allocated to COMRAM (34 bytes)
   275                           ; load TBLPTR registers with __pidataCOMRAM
   276   001F40  0E72               	movlw	low __pidataCOMRAM
   277   001F42  6EF6               	movwf	tblptrl,c
   278   001F44  0E22               	movlw	high __pidataCOMRAM
   279   001F46  6EF7               	movwf	tblptrh,c
   280   001F48  0E00               	movlw	low (__pidataCOMRAM shr (0+16))
   281   001F4A  6EF8               	movwf	tblptru,c
   282   001F4C  EE00  F052         	lfsr	0,__pdataCOMRAM
   283   001F50  EE10 F022          	lfsr	1,34
   284   001F54                     copy_data1:
   285   001F54  0009               	tblrd		*+
   286   001F56  CFF5 FFEE          	movff	tablat,postinc0
   287   001F5A  50E5               	movf	postdec1,w,c
   288   001F5C  50E1               	movf	fsr1l,w,c
   289   001F5E  E1FA               	bnz	copy_data1
   290                           
   291                           ; Clear objects allocated to BANK0 (32 bytes)
   292   001F60  EE00  F080         	lfsr	0,__pbssBANK0
   293   001F64  0E20               	movlw	32
   294   001F66                     clear_0:
   295   001F66  6AEE               	clrf	postinc0,c
   296   001F68  06E8               	decf	wreg,f,c
   297   001F6A  E1FD               	bnz	clear_0
   298                           
   299                           ; Clear objects allocated to COMRAM (12 bytes)
   300   001F6C  EE00  F074         	lfsr	0,__pbssCOMRAM
   301   001F70  0E0C               	movlw	12
   302   001F72                     clear_1:
   303   001F72  6AEE               	clrf	postinc0,c
   304   001F74  06E8               	decf	wreg,f,c
   305   001F76  E1FD               	bnz	clear_1
   306   001F78                     end_of_initialization:
   307                           	callstack 0
   308   001F78                     __end_of__initialization:
   309                           	callstack 0
   310   001F78  0E00               	movlw	low (__Lmediumconst shr (0+16))
   311   001F7A  6EF8               	movwf	tblptru,c
   312   001F7C  0100               	movlb	0
   313   001F7E  EF21  F008         	goto	_main	;jump to C main() function
   314                           
   315                           	psect	bssCOMRAM
   316   000074                     __pbssCOMRAM:
   317                           	callstack 0
   318   000074                     _width:
   319                           	callstack 0
   320   000074                     	ds	2
   321   000076                     _prec:
   322                           	callstack 0
   323   000076                     	ds	2
   324   000078                     _flags:
   325                           	callstack 0
   326   000078                     	ds	1
   327   000079                     relay_turn_off@F3062:
   328                           	callstack 0
   329   000079                     	ds	1
   330   00007A                     relay_turn_on@F3057:
   331                           	callstack 0
   332   00007A                     	ds	1
   333   00007B                     relay_initialize@F3052:
   334                           	callstack 0
   335   00007B                     	ds	1
   336   00007C                     led_turn_toggle@F3073:
   337                           	callstack 0
   338   00007C                     	ds	1
   339   00007D                     led_turn_off@F3068:
   340                           	callstack 0
   341   00007D                     	ds	1
   342   00007E                     led_turn_on@F3063:
   343                           	callstack 0
   344   00007E                     	ds	1
   345   00007F                     led_initialize@F3058:
   346                           	callstack 0
   347   00007F                     	ds	1
   348                           
   349                           	psect	dataCOMRAM
   350   000052                     __pdataCOMRAM:
   351                           	callstack 0
   352   000052                     _lat_registers:
   353                           	callstack 0
   354   000052                     	ds	10
   355   00005C                     _tris_registers:
   356                           	callstack 0
   357   00005C                     	ds	10
   358   000066                     _keypad_1:
   359                           	callstack 0
   360   000066                     	ds	8
   361   00006E                     _lcd_1:
   362                           	callstack 0
   363   00006E                     	ds	6
   364                           
   365                           	psect	bssBANK0
   366   000080                     __pbssBANK0:
   367                           	callstack 0
   368   000080                     _dbuf:
   369                           	callstack 0
   370   000080                     	ds	32
   371                           
   372                           	psect	dataBANK0
   373   0000A0                     __pdataBANK0:
   374                           	callstack 0
   375   0000A0                     _port_registers:
   376                           	callstack 0
   377   0000A0                     	ds	10
   378                           
   379                           	psect	cstackCOMRAM
   380   000001                     __pcstackCOMRAM:
   381                           	callstack 0
   382   000001                     ?___wmul:
   383                           	callstack 0
   384   000001                     ?___awdiv:
   385                           	callstack 0
   386   000001                     ?___awmod:
   387                           	callstack 0
   388   000001                     ?___lwdiv:
   389                           	callstack 0
   390   000001                     clearDataArrays@arr:
   391                           	callstack 0
   392   000001                     gpio_pin_direction_intialize@_pin_config:
   393                           	callstack 0
   394   000001                     gpio_pin_write_logic@_pin_config:
   395                           	callstack 0
   396   000001                     gpio_pin_read_logic@_pin_config:
   397                           	callstack 0
   398   000001                     memset@dest:
   399                           	callstack 0
   400   000001                     ___wmul@multiplier:
   401                           	callstack 0
   402   000001                     ___awdiv@dividend:
   403                           	callstack 0
   404   000001                     ___awmod@dividend:
   405                           	callstack 0
   406   000001                     ___lwdiv@dividend:
   407                           	callstack 0
   408   000001                     fputc@c:
   409                           	callstack 0
   410                           
   411                           ; 2 bytes @ 0x0
   412   000001                     	ds	1
   413   000002                     ??_gpio_pin_direction_intialize:
   414   000002                     clearDataArrays@size:
   415                           	callstack 0
   416   000002                     gpio_pin_write_logic@logic:
   417                           	callstack 0
   418   000002                     gpio_pin_read_logic@logic:
   419                           	callstack 0
   420   000002                     memset@c:
   421                           	callstack 0
   422                           
   423                           ; 2 bytes @ 0x1
   424   000002                     	ds	1
   425   000003                     ??_gpio_pin_write_logic:
   426   000003                     ??_gpio_pin_read_logic:
   427   000003                     clearDataArrays@i:
   428                           	callstack 0
   429   000003                     fputc@fp:
   430                           	callstack 0
   431   000003                     ___wmul@multiplicand:
   432                           	callstack 0
   433   000003                     ___awdiv@divisor:
   434                           	callstack 0
   435   000003                     ___awmod@divisor:
   436                           	callstack 0
   437   000003                     ___lwdiv@divisor:
   438                           	callstack 0
   439                           
   440                           ; 2 bytes @ 0x2
   441   000003                     	ds	1
   442   000004                     ??_fputc:
   443   000004                     memset@n:
   444                           	callstack 0
   445                           
   446                           ; 2 bytes @ 0x3
   447   000004                     	ds	1
   448   000005                     ___awdiv@counter:
   449                           	callstack 0
   450   000005                     ___awmod@counter:
   451                           	callstack 0
   452   000005                     ___wmul@product:
   453                           	callstack 0
   454   000005                     ___lwdiv@quotient:
   455                           	callstack 0
   456                           
   457                           ; 2 bytes @ 0x4
   458   000005                     	ds	1
   459   000006                     ___awdiv@sign:
   460                           	callstack 0
   461   000006                     ___awmod@sign:
   462                           	callstack 0
   463   000006                     memset@p:
   464                           	callstack 0
   465                           
   466                           ; 1 bytes @ 0x5
   467   000006                     	ds	1
   468   000007                     ?_abs:
   469                           	callstack 0
   470   000007                     ?_Number_return:
   471                           	callstack 0
   472   000007                     Number_return@arr:
   473                           	callstack 0
   474   000007                     gpio_pin_direction_intialize@ret:
   475                           	callstack 0
   476   000007                     gpio_pin_read_logic@ret:
   477                           	callstack 0
   478   000007                     ___lwdiv@counter:
   479                           	callstack 0
   480   000007                     ___awdiv@quotient:
   481                           	callstack 0
   482   000007                     abs@a:
   483                           	callstack 0
   484                           
   485                           ; 2 bytes @ 0x6
   486   000007                     	ds	1
   487   000008                     Number_return@count:
   488                           	callstack 0
   489   000008                     gpio_pin_write_logic@ret:
   490                           	callstack 0
   491                           
   492                           ; 1 bytes @ 0x7
   493   000008                     	ds	1
   494   000009                     ??_abs:
   495   000009                     ??_Number_return:
   496   000009                     lcd_send_4bits@lcd:
   497                           	callstack 0
   498   000009                     lcd_4bits_send_enable_signal@lcd:
   499                           	callstack 0
   500   000009                     keypad_get_value@_keypad_obj:
   501                           	callstack 0
   502   000009                     gpio_pin_intialize@_pin_config:
   503                           	callstack 0
   504                           
   505                           ; 1 bytes @ 0x8
   506   000009                     	ds	1
   507   00000A                     ??_gpio_pin_intialize:
   508   00000A                     ??_lcd_4bits_send_enable_signal:
   509   00000A                     lcd_send_4bits@_data_command:
   510                           	callstack 0
   511   00000A                     keypad_get_value@keypad_value:
   512                           	callstack 0
   513                           
   514                           ; 1 bytes @ 0x9
   515   00000A                     	ds	1
   516   00000B                     ??_keypad_get_value:
   517   00000B                     lcd_send_4bits@ret:
   518                           	callstack 0
   519   00000B                     gpio_pin_intialize@ret:
   520                           	callstack 0
   521   00000B                     vfpfcnvrt@fp:
   522                           	callstack 0
   523                           
   524                           ; 1 bytes @ 0xA
   525   00000B                     	ds	1
   526   00000C                     lcd_4bit_send_command@lcd:
   527                           	callstack 0
   528   00000C                     lcd_4bit_send_char_data@lcd:
   529                           	callstack 0
   530   00000C                     keypad_initialize@_keypad_obj:
   531                           	callstack 0
   532   00000C                     keypad_get_value@ret:
   533                           	callstack 0
   534   00000C                     vfpfcnvrt@fmt:
   535                           	callstack 0
   536   00000C                     Number_return@num:
   537                           	callstack 0
   538                           
   539                           ; 2 bytes @ 0xB
   540   00000C                     	ds	1
   541   00000D                     lcd_4bit_send_command@command:
   542                           	callstack 0
   543   00000D                     lcd_4bit_send_char_data@data:
   544                           	callstack 0
   545   00000D                     keypad_initialize@ret:
   546                           	callstack 0
   547   00000D                     keypad_get_value@column_logic:
   548                           	callstack 0
   549   00000D                     vfpfcnvrt@ap:
   550                           	callstack 0
   551                           
   552                           ; 1 bytes @ 0xC
   553   00000D                     	ds	1
   554   00000E                     ??_vfpfcnvrt:
   555   00000E                     lcd_4bit_send_command@ret:
   556                           	callstack 0
   557   00000E                     lcd_4bit_send_char_data@ret:
   558                           	callstack 0
   559   00000E                     keypad_initialize@rows_counter:
   560                           	callstack 0
   561   00000E                     keypad_get_value@l_counter:
   562                           	callstack 0
   563   00000E                     Number_return@i:
   564                           	callstack 0
   565                           
   566                           ; 2 bytes @ 0xD
   567   00000E                     	ds	1
   568   00000F                     lcd_4bit_initialize@lcd:
   569                           	callstack 0
   570   00000F                     lcd_4bits_set_cursor@lcd:
   571                           	callstack 0
   572   00000F                     keypad_initialize@coloumns_counter:
   573                           	callstack 0
   574   00000F                     keypad_get_value@l_rows_counter:
   575                           	callstack 0
   576   00000F                     vfpfcnvrt@done:
   577                           	callstack 0
   578                           
   579                           ; 1 bytes @ 0xE
   580   00000F                     	ds	1
   581   000010                     ??_lcd_4bit_initialize:
   582   000010                     lcd_4bits_set_cursor@row:
   583                           	callstack 0
   584   000010                     keypad_get_value@l_coloumns_counter:
   585                           	callstack 0
   586   000010                     vfpfcnvrt@cp:
   587                           	callstack 0
   588                           
   589                           ; 1 bytes @ 0xF
   590   000010                     	ds	1
   591   000011                     lcd_4bit_initialize@l_data_pins_counter:
   592                           	callstack 0
   593   000011                     lcd_4bits_set_cursor@colomn:
   594                           	callstack 0
   595   000011                     vfpfcnvrt@convarg:
   596                           	callstack 0
   597                           
   598                           ; 4 bytes @ 0x10
   599   000011                     	ds	1
   600   000012                     ??_lcd_4bits_set_cursor:
   601   000012                     lcd_4bit_initialize@ret:
   602                           	callstack 0
   603                           
   604                           ; 1 bytes @ 0x11
   605   000012                     	ds	1
   606   000013                     
   607                           ; 1 bytes @ 0x12
   608   000013                     	ds	1
   609   000014                     lcd_4bits_set_cursor@ret:
   610                           	callstack 0
   611                           
   612                           ; 1 bytes @ 0x13
   613   000014                     	ds	1
   614   000015                     lcd_4bit_send_char_data_pos@lcd:
   615                           	callstack 0
   616   000015                     lcd_4bit_send_string_pos@lcd:
   617                           	callstack 0
   618   000015                     vfpfcnvrt@c:
   619                           	callstack 0
   620                           
   621                           ; 1 bytes @ 0x14
   622   000015                     	ds	1
   623   000016                     ?_vfprintf:
   624                           	callstack 0
   625   000016                     lcd_4bit_send_char_data_pos@row:
   626                           	callstack 0
   627   000016                     lcd_4bit_send_string_pos@row:
   628                           	callstack 0
   629   000016                     vfprintf@fp:
   630                           	callstack 0
   631                           
   632                           ; 1 bytes @ 0x15
   633   000016                     	ds	1
   634   000017                     lcd_4bit_send_char_data_pos@colomn:
   635                           	callstack 0
   636   000017                     lcd_4bit_send_string_pos@colomn:
   637                           	callstack 0
   638   000017                     vfprintf@fmt:
   639                           	callstack 0
   640                           
   641                           ; 1 bytes @ 0x16
   642   000017                     	ds	1
   643   000018                     lcd_4bit_send_char_data_pos@data:
   644                           	callstack 0
   645   000018                     vfprintf@ap:
   646                           	callstack 0
   647   000018                     lcd_4bit_send_string_pos@str:
   648                           	callstack 0
   649                           
   650                           ; 2 bytes @ 0x17
   651   000018                     	ds	1
   652   000019                     lcd_4bit_send_char_data_pos@ret:
   653                           	callstack 0
   654   000019                     vfprintf@cfmt:
   655                           	callstack 0
   656                           
   657                           ; 1 bytes @ 0x18
   658   000019                     	ds	1
   659   00001A                     ?_sprintf:
   660                           	callstack 0
   661   00001A                     lcd_4bit_send_string_pos@ret:
   662                           	callstack 0
   663   00001A                     sprintf@s:
   664                           	callstack 0
   665                           
   666                           ; 1 bytes @ 0x19
   667   00001A                     	ds	1
   668   00001B                     sprintf@fmt:
   669                           	callstack 0
   670                           
   671                           ; 1 bytes @ 0x1A
   672   00001B                     	ds	3
   673   00001E                     sprintf@ap:
   674                           	callstack 0
   675                           
   676                           ; 1 bytes @ 0x1D
   677   00001E                     	ds	1
   678   00001F                     sprintf@f:
   679                           	callstack 0
   680                           
   681                           ; 12 bytes @ 0x1E
   682   00001F                     	ds	12
   683   00002B                     convert_uint16_to_string@value:
   684                           	callstack 0
   685                           
   686                           ; 2 bytes @ 0x2A
   687   00002B                     	ds	2
   688   00002D                     convert_uint16_to_string@str:
   689                           	callstack 0
   690                           
   691                           ; 1 bytes @ 0x2C
   692   00002D                     	ds	1
   693   00002E                     convert_uint16_to_string@ret:
   694                           	callstack 0
   695                           
   696                           ; 1 bytes @ 0x2D
   697   00002E                     	ds	1
   698   00002F                     ??_main:
   699                           
   700                           ; 1 bytes @ 0x2E
   701   00002F                     	ds	2
   702   000031                     main@FirstNumber:
   703                           	callstack 0
   704                           
   705                           ; 6 bytes @ 0x30
   706   000031                     	ds	6
   707   000037                     main@SecondNumber:
   708                           	callstack 0
   709                           
   710                           ; 6 bytes @ 0x36
   711   000037                     	ds	6
   712   00003D                     main@result:
   713                           	callstack 0
   714                           
   715                           ; 12 bytes @ 0x3C
   716   00003D                     	ds	12
   717   000049                     main@operation:
   718                           	callstack 0
   719                           
   720                           ; 1 bytes @ 0x48
   721   000049                     	ds	1
   722   00004A                     main@counter3:
   723                           	callstack 0
   724                           
   725                           ; 1 bytes @ 0x49
   726   00004A                     	ds	1
   727   00004B                     main@counter2:
   728                           	callstack 0
   729                           
   730                           ; 1 bytes @ 0x4A
   731   00004B                     	ds	1
   732   00004C                     main@number1:
   733                           	callstack 0
   734                           
   735                           ; 2 bytes @ 0x4B
   736   00004C                     	ds	2
   737   00004E                     main@number2:
   738                           	callstack 0
   739                           
   740                           ; 2 bytes @ 0x4D
   741   00004E                     	ds	2
   742   000050                     main@counter:
   743                           	callstack 0
   744                           
   745                           ; 1 bytes @ 0x4F
   746   000050                     	ds	1
   747   000051                     main@KeypadValue:
   748                           	callstack 0
   749                           
   750                           ; 1 bytes @ 0x50
   751   000051                     	ds	1
   752                           
   753 ;;
   754 ;;Main: autosize = 0, tempsize = 2, incstack = 0, save=0
   755 ;;
   756 ;; *************** function _main *****************
   757 ;; Defined at:
   758 ;;		line 13 in file "application.c"
   759 ;; Parameters:    Size  Location     Type
   760 ;;		None
   761 ;; Auto vars:     Size  Location     Type
   762 ;;  counter2        1   74[COMRAM] unsigned char 
   763 ;;  counter3        1   73[COMRAM] unsigned char 
   764 ;;  result         12   60[COMRAM] unsigned short [6]
   765 ;;  SecondNumber    6   54[COMRAM] unsigned char [6]
   766 ;;  FirstNumber     6   48[COMRAM] unsigned char [6]
   767 ;;  number2         2   77[COMRAM] unsigned short 
   768 ;;  number1         2   75[COMRAM] unsigned short 
   769 ;;  KeypadValue     1   80[COMRAM] unsigned char 
   770 ;;  counter         1   79[COMRAM] unsigned char 
   771 ;;  operation       1   72[COMRAM] unsigned char 
   772 ;; Return value:  Size  Location     Type
   773 ;;                  2  496[None  ] int 
   774 ;; Registers used:
   775 ;;		wreg, fsr0l, fsr0h, fsr1l, fsr1h, fsr2l, fsr2h, status,2, status,0, tblptrl, tblptrh, tblptru, prodl, prodh, cstack
   776 ;; Tracked objects:
   777 ;;		On entry : 0/0
   778 ;;		On exit  : 0/0
   779 ;;		Unchanged: 0/0
   780 ;; Data sizes:     COMRAM   BANK0   BANK1   BANK2   BANK3   BANK4   BANK5   BANK6   BANK7   BANK8   BANK9  BANK10  BANK1
      +1  BANK12  BANK13  BANK14  BANK15
   781 ;;      Params:         0       0       0       0       0       0       0       0       0       0       0       0       
      +0       0       0       0       0
   782 ;;      Locals:        33       0       0       0       0       0       0       0       0       0       0       0       
      +0       0       0       0       0
   783 ;;      Temps:          2       0       0       0       0       0       0       0       0       0       0       0       
      +0       0       0       0       0
   784 ;;      Totals:        35       0       0       0       0       0       0       0       0       0       0       0       
      +0       0       0       0       0
   785 ;;Total ram usage:       35 bytes
   786 ;; Hardware stack levels required when called: 6
   787 ;; This function calls:
   788 ;;		_Number_return
   789 ;;		___lwdiv
   790 ;;		___wmul
   791 ;;		_application_intialize
   792 ;;		_clearDataArrays
   793 ;;		_convert_uint16_to_string
   794 ;;		_keypad_get_value
   795 ;;		_lcd_4bit_send_char_data_pos
   796 ;;		_lcd_4bit_send_command
   797 ;;		_lcd_4bit_send_string_pos
   798 ;; This function is called by:
   799 ;;		Startup code after reset
   800 ;; This function uses a non-reentrant model
   801 ;;
   802                           
   803                           	psect	text0
   804   001042                     __ptext0:
   805                           	callstack 0
   806   001042                     _main:
   807                           	callstack 25
   808   001042                     
   809                           ;application.c: 16: uint8 FirstNumber[6];;application.c: 17: uint8 SecondNumber[6];;appl
      +                          ication.c: 18: uint16 number1 = 0, number2 = 0;
   810   001042  0E00               	movlw	0
   811   001044  6E4D               	movwf	(main@number1+1)^0,c
   812   001046  0E00               	movlw	0
   813   001048  6E4C               	movwf	main@number1^0,c
   814   00104A  0E00               	movlw	0
   815   00104C  6E4F               	movwf	(main@number2+1)^0,c
   816   00104E  0E00               	movlw	0
   817   001050  6E4E               	movwf	main@number2^0,c
   818                           
   819                           ;application.c: 19: uint8 operation = 0;
   820   001052  0E00               	movlw	0
   821   001054  6E49               	movwf	main@operation^0,c
   822                           
   823                           ;application.c: 20: uint16 result[6];;application.c: 21: uint8 counter = 0;
   824   001056  0E00               	movlw	0
   825   001058  6E50               	movwf	main@counter^0,c
   826   00105A                     
   827                           ;application.c: 24:     application_intialize();
   828   00105A  EC5C  F011         	call	_application_intialize	;wreg free
   829   00105E                     
   830                           ;application.c: 27:     ret = lcd_4bit_send_string_pos(&lcd_1, 1, 3, "Simple Calculator"
      +                          );
   831   00105E  0E6E               	movlw	low _lcd_1
   832   001060  6E15               	movwf	lcd_4bit_send_string_pos@lcd^0,c
   833   001062  0E01               	movlw	1
   834   001064  6E16               	movwf	lcd_4bit_send_string_pos@row^0,c
   835   001066  0E03               	movlw	3
   836   001068  6E17               	movwf	lcd_4bit_send_string_pos@colomn^0,c
   837   00106A  0E24               	movlw	low STR_4
   838   00106C  6E18               	movwf	lcd_4bit_send_string_pos@str^0,c
   839   00106E  5018               	movf	lcd_4bit_send_string_pos@str^0,w,c
   840   001070  A4D8               	btfss	status,2,c
   841   001072  0E10               	movlw	high __smallconst
   842   001074  6E19               	movwf	(lcd_4bit_send_string_pos@str+1)^0,c
   843   001076  EC0C  F00E         	call	_lcd_4bit_send_string_pos	;wreg free
   844   00107A  0100               	movlb	0	; () banked
   845   00107C  6FAA               	movwf	_ret& (0+255),b
   846   00107E                     
   847                           ; BSR set to: 0
   848                           ;application.c: 28:      ret = lcd_4bit_send_string_pos(&lcd_1, 2, 7, "Made By");
   849   00107E  0E6E               	movlw	low _lcd_1
   850   001080  6E15               	movwf	lcd_4bit_send_string_pos@lcd^0,c
   851   001082  0E02               	movlw	2
   852   001084  6E16               	movwf	lcd_4bit_send_string_pos@row^0,c
   853   001086  0E07               	movlw	7
   854   001088  6E17               	movwf	lcd_4bit_send_string_pos@colomn^0,c
   855   00108A  0E36               	movlw	low STR_5
   856   00108C  6E18               	movwf	lcd_4bit_send_string_pos@str^0,c
   857   00108E  5018               	movf	lcd_4bit_send_string_pos@str^0,w,c
   858   001090  A4D8               	btfss	status,2,c
   859   001092  0E10               	movlw	high __smallconst
   860   001094  6E19               	movwf	(lcd_4bit_send_string_pos@str+1)^0,c
   861   001096  EC0C  F00E         	call	_lcd_4bit_send_string_pos	;wreg free
   862   00109A  0100               	movlb	0	; () banked
   863   00109C  6FAA               	movwf	_ret& (0+255),b
   864   00109E                     
   865                           ; BSR set to: 0
   866                           ;application.c: 29:         ret = lcd_4bit_send_string_pos(&lcd_1, 3, 3, "Eng. Khaled Fa
      +                          rrag");
   867   00109E  0E6E               	movlw	low _lcd_1
   868   0010A0  6E15               	movwf	lcd_4bit_send_string_pos@lcd^0,c
   869   0010A2  0E03               	movlw	3
   870   0010A4  6E16               	movwf	lcd_4bit_send_string_pos@row^0,c
   871   0010A6  0E03               	movlw	3
   872   0010A8  6E17               	movwf	lcd_4bit_send_string_pos@colomn^0,c
   873   0010AA  0E11               	movlw	low STR_6
   874   0010AC  6E18               	movwf	lcd_4bit_send_string_pos@str^0,c
   875   0010AE  5018               	movf	lcd_4bit_send_string_pos@str^0,w,c
   876   0010B0  A4D8               	btfss	status,2,c
   877   0010B2  0E10               	movlw	high __smallconst
   878   0010B4  6E19               	movwf	(lcd_4bit_send_string_pos@str+1)^0,c
   879   0010B6  EC0C  F00E         	call	_lcd_4bit_send_string_pos	;wreg free
   880   0010BA  0100               	movlb	0	; () banked
   881   0010BC  6FAA               	movwf	_ret& (0+255),b
   882   0010BE                     
   883                           ; BSR set to: 0
   884                           ;application.c: 30:     _delay((unsigned long)((2000)*(4000000UL/4000.0)));
   885   0010BE  0E0B               	movlw	11
   886   0010C0  6E30               	movwf	(??_main+1)^0,c
   887   0010C2  0E26               	movlw	38
   888   0010C4  6E2F               	movwf	??_main^0,c
   889   0010C6  0E5E               	movlw	94
   890   0010C8                     u2707:
   891   0010C8  2EE8               	decfsz	wreg,f,c
   892   0010CA  D7FE               	bra	u2707
   893   0010CC  2E2F               	decfsz	??_main^0,f,c
   894   0010CE  D7FC               	bra	u2707
   895   0010D0  2E30               	decfsz	(??_main+1)^0,f,c
   896   0010D2  D7FA               	bra	u2707
   897   0010D4                     l3466:
   898                           
   899                           ;application.c: 31:     ret = lcd_4bit_send_command(&lcd_1, 0x01);
   900   0010D4  0E6E               	movlw	low _lcd_1
   901   0010D6  6E0C               	movwf	lcd_4bit_send_command@lcd^0,c
   902   0010D8  0E01               	movlw	1
   903   0010DA  6E0D               	movwf	lcd_4bit_send_command@command^0,c
   904   0010DC  EC1A  F010         	call	_lcd_4bit_send_command	;wreg free
   905   0010E0  0100               	movlb	0	; () banked
   906   0010E2  6FAA               	movwf	_ret& (0+255),b
   907   0010E4                     
   908                           ; BSR set to: 0
   909                           ;application.c: 34:         {;application.c: 35:         KeypadValue = '\0';
   910   0010E4  0E00               	movlw	0
   911   0010E6  6E51               	movwf	main@KeypadValue^0,c
   912   0010E8                     
   913                           ; BSR set to: 0
   914                           ;application.c: 37:         clearDataArrays(FirstNumber, 5);
   915   0010E8  0E31               	movlw	low main@FirstNumber
   916   0010EA  6E01               	movwf	clearDataArrays@arr^0,c
   917   0010EC  0E05               	movlw	5
   918   0010EE  6E02               	movwf	clearDataArrays@size^0,c
   919   0010F0  EC12  F011         	call	_clearDataArrays	;wreg free
   920   0010F4                     
   921                           ;application.c: 38:         clearDataArrays(SecondNumber, 5);
   922   0010F4  0E37               	movlw	low main@SecondNumber
   923   0010F6  6E01               	movwf	clearDataArrays@arr^0,c
   924   0010F8  0E05               	movlw	5
   925   0010FA  6E02               	movwf	clearDataArrays@size^0,c
   926   0010FC  EC12  F011         	call	_clearDataArrays	;wreg free
   927   001100                     
   928                           ;application.c: 41:         counter = 0;
   929   001100  0E00               	movlw	0
   930   001102  6E50               	movwf	main@counter^0,c
   931   001104                     l3478:
   932                           
   933                           ;application.c: 46:                 ret = keypad_get_value(&keypad_1, &KeypadValue);
   934   001104  0E66               	movlw	low _keypad_1
   935   001106  6E09               	movwf	keypad_get_value@_keypad_obj^0,c
   936   001108  0E51               	movlw	low main@KeypadValue
   937   00110A  6E0A               	movwf	keypad_get_value@keypad_value^0,c
   938   00110C  ECB3  F00B         	call	_keypad_get_value	;wreg free
   939   001110  0100               	movlb	0	; () banked
   940   001112  6FAA               	movwf	_ret& (0+255),b
   941   001114                     
   942                           ; BSR set to: 0
   943                           ;application.c: 47:             }while(KeypadValue == '\0');
   944   001114  5051               	movf	main@KeypadValue^0,w,c
   945   001116  B4D8               	btfsc	status,2,c
   946   001118  EF90  F008         	goto	u2631
   947   00111C  EF92  F008         	goto	u2630
   948   001120                     u2631:
   949   001120  EF82  F008         	goto	l3478
   950   001124                     u2630:
   951   001124                     
   952                           ; BSR set to: 0
   953                           ;application.c: 49:             if(KeypadValue == '/' || KeypadValue == '*' || KeypadVal
      +                          ue == '-' || KeypadValue == '+'){
   954   001124  0E2F               	movlw	47
   955   001126  1851               	xorwf	main@KeypadValue^0,w,c
   956   001128  B4D8               	btfsc	status,2,c
   957   00112A  EF99  F008         	goto	u2641
   958   00112E  EF9B  F008         	goto	u2640
   959   001132                     u2641:
   960   001132  EFB6  F008         	goto	l503
   961   001136                     u2640:
   962   001136                     
   963                           ; BSR set to: 0
   964   001136  0E2A               	movlw	42
   965   001138  1851               	xorwf	main@KeypadValue^0,w,c
   966   00113A  B4D8               	btfsc	status,2,c
   967   00113C  EFA2  F008         	goto	u2651
   968   001140  EFA4  F008         	goto	u2650
   969   001144                     u2651:
   970   001144  EFB6  F008         	goto	l503
   971   001148                     u2650:
   972   001148                     
   973                           ; BSR set to: 0
   974   001148  0E2D               	movlw	45
   975   00114A  1851               	xorwf	main@KeypadValue^0,w,c
   976   00114C  B4D8               	btfsc	status,2,c
   977   00114E  EFAB  F008         	goto	u2661
   978   001152  EFAD  F008         	goto	u2660
   979   001156                     u2661:
   980   001156  EFB6  F008         	goto	l503
   981   00115A                     u2660:
   982   00115A                     
   983                           ; BSR set to: 0
   984   00115A  0E2B               	movlw	43
   985   00115C  1851               	xorwf	main@KeypadValue^0,w,c
   986   00115E  A4D8               	btfss	status,2,c
   987   001160  EFB4  F008         	goto	u2671
   988   001164  EFB6  F008         	goto	u2670
   989   001168                     u2671:
   990   001168  EFC8  F008         	goto	l3494
   991   00116C                     u2670:
   992   00116C                     l503:
   993                           
   994                           ; BSR set to: 0
   995                           ;application.c: 50:                 operation = KeypadValue;
   996   00116C  C051  F049         	movff	main@KeypadValue,main@operation
   997   001170                     
   998                           ; BSR set to: 0
   999                           ;application.c: 51:                 ret = lcd_4bit_send_char_data_pos(&lcd_1, 1, counter
      +                          +1, KeypadValue);
  1000   001170  0E6E               	movlw	low _lcd_1
  1001   001172  6E15               	movwf	lcd_4bit_send_char_data_pos@lcd^0,c
  1002   001174  0E01               	movlw	1
  1003   001176  6E16               	movwf	lcd_4bit_send_char_data_pos@row^0,c
  1004   001178  2850               	incf	main@counter^0,w,c
  1005   00117A  6E17               	movwf	lcd_4bit_send_char_data_pos@colomn^0,c
  1006   00117C  C051  F018         	movff	main@KeypadValue,lcd_4bit_send_char_data_pos@data
  1007   001180  ECA8  F010         	call	_lcd_4bit_send_char_data_pos	;wreg free
  1008   001184  0100               	movlb	0	; () banked
  1009   001186  6FAA               	movwf	_ret& (0+255),b
  1010   001188                     
  1011                           ; BSR set to: 0
  1012                           ;application.c: 52:                 KeypadValue = '\0';
  1013   001188  0E00               	movlw	0
  1014   00118A  6E51               	movwf	main@KeypadValue^0,c
  1015                           
  1016                           ;application.c: 53:                 break;
  1017   00118C  EFDF  F008         	goto	l3502
  1018   001190                     l3494:
  1019                           
  1020                           ; BSR set to: 0
  1021                           ;application.c: 55:             FirstNumber[counter] = KeypadValue;
  1022   001190  5050               	movf	main@counter^0,w,c
  1023   001192  0F31               	addlw	low main@FirstNumber
  1024   001194  6ED9               	movwf	fsr2l,c
  1025   001196  6ADA               	clrf	fsr2h,c
  1026   001198  C051  FFDF         	movff	main@KeypadValue,indf2
  1027   00119C                     
  1028                           ; BSR set to: 0
  1029                           ;application.c: 56:             counter++;
  1030   00119C  2A50               	incf	main@counter^0,f,c
  1031   00119E                     
  1032                           ; BSR set to: 0
  1033                           ;application.c: 57:             ret = lcd_4bit_send_char_data_pos(&lcd_1, 1, counter, Ke
      +                          ypadValue);
  1034   00119E  0E6E               	movlw	low _lcd_1
  1035   0011A0  6E15               	movwf	lcd_4bit_send_char_data_pos@lcd^0,c
  1036   0011A2  0E01               	movlw	1
  1037   0011A4  6E16               	movwf	lcd_4bit_send_char_data_pos@row^0,c
  1038   0011A6  C050  F017         	movff	main@counter,lcd_4bit_send_char_data_pos@colomn
  1039   0011AA  C051  F018         	movff	main@KeypadValue,lcd_4bit_send_char_data_pos@data
  1040   0011AE  ECA8  F010         	call	_lcd_4bit_send_char_data_pos	;wreg free
  1041   0011B2  0100               	movlb	0	; () banked
  1042   0011B4  6FAA               	movwf	_ret& (0+255),b
  1043   0011B6                     
  1044                           ; BSR set to: 0
  1045                           ;application.c: 58:             KeypadValue = '\0';
  1046   0011B6  0E00               	movlw	0
  1047   0011B8  6E51               	movwf	main@KeypadValue^0,c
  1048   0011BA  EF82  F008         	goto	l3478
  1049   0011BE                     l3502:
  1050                           
  1051                           ; BSR set to: 0
  1052                           ;application.c: 61:         uint8 counter2 = counter + 1;
  1053   0011BE  2850               	incf	main@counter^0,w,c
  1054   0011C0  6E4B               	movwf	main@counter2^0,c
  1055   0011C2                     
  1056                           ; BSR set to: 0
  1057                           ;application.c: 62:         uint8 counter3 = 0;
  1058   0011C2  0E00               	movlw	0
  1059   0011C4  6E4A               	movwf	main@counter3^0,c
  1060   0011C6                     l3506:
  1061                           
  1062                           ; BSR set to: 0
  1063                           ;application.c: 65:                 ret = keypad_get_value(&keypad_1, &KeypadValue);
  1064   0011C6  0E66               	movlw	low _keypad_1
  1065   0011C8  6E09               	movwf	keypad_get_value@_keypad_obj^0,c
  1066   0011CA  0E51               	movlw	low main@KeypadValue
  1067   0011CC  6E0A               	movwf	keypad_get_value@keypad_value^0,c
  1068   0011CE  ECB3  F00B         	call	_keypad_get_value	;wreg free
  1069   0011D2  0100               	movlb	0	; () banked
  1070   0011D4  6FAA               	movwf	_ret& (0+255),b
  1071   0011D6                     
  1072                           ; BSR set to: 0
  1073                           ;application.c: 67:             }while(KeypadValue == '\0');
  1074   0011D6  5051               	movf	main@KeypadValue^0,w,c
  1075   0011D8  B4D8               	btfsc	status,2,c
  1076   0011DA  EFF1  F008         	goto	u2681
  1077   0011DE  EFF3  F008         	goto	u2680
  1078   0011E2                     u2681:
  1079   0011E2  EFE3  F008         	goto	l3506
  1080   0011E6                     u2680:
  1081   0011E6                     
  1082                           ; BSR set to: 0
  1083                           ;application.c: 69:             if(KeypadValue == '='){
  1084   0011E6  0E3D               	movlw	61
  1085   0011E8  1851               	xorwf	main@KeypadValue^0,w,c
  1086   0011EA  A4D8               	btfss	status,2,c
  1087   0011EC  EFFA  F008         	goto	u2691
  1088   0011F0  EFFC  F008         	goto	u2690
  1089   0011F4                     u2691:
  1090   0011F4  EF0A  F009         	goto	l3516
  1091   0011F8                     u2690:
  1092   0011F8                     
  1093                           ; BSR set to: 0
  1094                           ;application.c: 70:                 ret = lcd_4bit_send_char_data_pos(&lcd_1, 1, counter
      +                          2+1, KeypadValue);
  1095   0011F8  0E6E               	movlw	low _lcd_1
  1096   0011FA  6E15               	movwf	lcd_4bit_send_char_data_pos@lcd^0,c
  1097   0011FC  0E01               	movlw	1
  1098   0011FE  6E16               	movwf	lcd_4bit_send_char_data_pos@row^0,c
  1099   001200  284B               	incf	main@counter2^0,w,c
  1100   001202  6E17               	movwf	lcd_4bit_send_char_data_pos@colomn^0,c
  1101   001204  C051  F018         	movff	main@KeypadValue,lcd_4bit_send_char_data_pos@data
  1102   001208  ECA8  F010         	call	_lcd_4bit_send_char_data_pos	;wreg free
  1103   00120C  0100               	movlb	0	; () banked
  1104   00120E  6FAA               	movwf	_ret& (0+255),b
  1105   001210                     
  1106                           ; BSR set to: 0
  1107                           ;application.c: 72:                 break;
  1108   001210  EF22  F009         	goto	l3526
  1109   001214                     l3516:
  1110                           
  1111                           ; BSR set to: 0
  1112                           ;application.c: 75:             SecondNumber[counter3] = KeypadValue;
  1113   001214  504A               	movf	main@counter3^0,w,c
  1114   001216  0F37               	addlw	low main@SecondNumber
  1115   001218  6ED9               	movwf	fsr2l,c
  1116   00121A  6ADA               	clrf	fsr2h,c
  1117   00121C  C051  FFDF         	movff	main@KeypadValue,indf2
  1118   001220                     
  1119                           ; BSR set to: 0
  1120                           ;application.c: 76:             counter2++;
  1121   001220  2A4B               	incf	main@counter2^0,f,c
  1122   001222                     
  1123                           ; BSR set to: 0
  1124                           ;application.c: 77:             counter3++;
  1125   001222  2A4A               	incf	main@counter3^0,f,c
  1126   001224                     
  1127                           ; BSR set to: 0
  1128                           ;application.c: 78:             ret = lcd_4bit_send_char_data_pos(&lcd_1, 1, counter2, K
      +                          eypadValue);
  1129   001224  0E6E               	movlw	low _lcd_1
  1130   001226  6E15               	movwf	lcd_4bit_send_char_data_pos@lcd^0,c
  1131   001228  0E01               	movlw	1
  1132   00122A  6E16               	movwf	lcd_4bit_send_char_data_pos@row^0,c
  1133   00122C  C04B  F017         	movff	main@counter2,lcd_4bit_send_char_data_pos@colomn
  1134   001230  C051  F018         	movff	main@KeypadValue,lcd_4bit_send_char_data_pos@data
  1135   001234  ECA8  F010         	call	_lcd_4bit_send_char_data_pos	;wreg free
  1136   001238  0100               	movlb	0	; () banked
  1137   00123A  6FAA               	movwf	_ret& (0+255),b
  1138   00123C                     
  1139                           ; BSR set to: 0
  1140                           ;application.c: 79:             KeypadValue = '\0';
  1141   00123C  0E00               	movlw	0
  1142   00123E  6E51               	movwf	main@KeypadValue^0,c
  1143   001240  EFE3  F008         	goto	l3506
  1144   001244                     l3526:
  1145                           
  1146                           ; BSR set to: 0
  1147                           ;application.c: 83:         number1 = Number_return(FirstNumber, counter);
  1148   001244  0E31               	movlw	low main@FirstNumber
  1149   001246  6E07               	movwf	Number_return@arr^0,c
  1150   001248  C050  F008         	movff	main@counter,Number_return@count
  1151   00124C  ECB2  F00E         	call	_Number_return	;wreg free
  1152   001250  C007  F04C         	movff	?_Number_return,main@number1
  1153   001254  C008  F04D         	movff	?_Number_return+1,main@number1+1
  1154                           
  1155                           ;application.c: 84:         number2 = Number_return(SecondNumber, counter3);
  1156   001258  0E37               	movlw	low main@SecondNumber
  1157   00125A  6E07               	movwf	Number_return@arr^0,c
  1158   00125C  C04A  F008         	movff	main@counter3,Number_return@count
  1159   001260  ECB2  F00E         	call	_Number_return	;wreg free
  1160   001264  C007  F04E         	movff	?_Number_return,main@number2
  1161   001268  C008  F04F         	movff	?_Number_return+1,main@number2+1
  1162                           
  1163                           ;application.c: 87:         switch(operation){
  1164   00126C  EF80  F009         	goto	l3538
  1165   001270                     l3528:
  1166                           
  1167                           ;application.c: 89:                 ret = convert_uint16_to_string((number1 + number2), 
      +                          result);
  1168   001270  504E               	movf	main@number2^0,w,c
  1169   001272  244C               	addwf	main@number1^0,w,c
  1170   001274  6E2B               	movwf	convert_uint16_to_string@value^0,c
  1171   001276  504F               	movf	(main@number2+1)^0,w,c
  1172   001278  204D               	addwfc	(main@number1+1)^0,w,c
  1173   00127A  6E2C               	movwf	(convert_uint16_to_string@value+1)^0,c
  1174   00127C  0E3D               	movlw	low main@result
  1175   00127E  6E2D               	movwf	convert_uint16_to_string@str^0,c
  1176   001280  EC44  F010         	call	_convert_uint16_to_string	;wreg free
  1177   001284  0100               	movlb	0	; () banked
  1178   001286  6FAA               	movwf	_ret& (0+255),b
  1179                           
  1180                           ;application.c: 90:                  break;
  1181   001288  EF9D  F009         	goto	l3540
  1182   00128C                     l3530:
  1183                           
  1184                           ;application.c: 92:                 ret = convert_uint16_to_string((number1 - number2), 
      +                          result);
  1185   00128C  504E               	movf	main@number2^0,w,c
  1186   00128E  5C4C               	subwf	main@number1^0,w,c
  1187   001290  6E2B               	movwf	convert_uint16_to_string@value^0,c
  1188   001292  504F               	movf	(main@number2+1)^0,w,c
  1189   001294  584D               	subwfb	(main@number1+1)^0,w,c
  1190   001296  6E2C               	movwf	(convert_uint16_to_string@value+1)^0,c
  1191   001298  0E3D               	movlw	low main@result
  1192   00129A  6E2D               	movwf	convert_uint16_to_string@str^0,c
  1193   00129C  EC44  F010         	call	_convert_uint16_to_string	;wreg free
  1194   0012A0  0100               	movlb	0	; () banked
  1195   0012A2  6FAA               	movwf	_ret& (0+255),b
  1196                           
  1197                           ;application.c: 93:                 break;
  1198   0012A4  EF9D  F009         	goto	l3540
  1199   0012A8                     l3532:
  1200                           
  1201                           ;application.c: 95:                 ret = convert_uint16_to_string((number1 * number2), 
      +                          result);
  1202   0012A8  C04C  F001         	movff	main@number1,___wmul@multiplier
  1203   0012AC  C04D  F002         	movff	main@number1+1,___wmul@multiplier+1
  1204   0012B0  C04E  F003         	movff	main@number2,___wmul@multiplicand
  1205   0012B4  C04F  F004         	movff	main@number2+1,___wmul@multiplicand+1
  1206   0012B8  EC26  F011         	call	___wmul	;wreg free
  1207   0012BC  C001  F02B         	movff	?___wmul,convert_uint16_to_string@value
  1208   0012C0  C002  F02C         	movff	?___wmul+1,convert_uint16_to_string@value+1
  1209   0012C4  0E3D               	movlw	low main@result
  1210   0012C6  6E2D               	movwf	convert_uint16_to_string@str^0,c
  1211   0012C8  EC44  F010         	call	_convert_uint16_to_string	;wreg free
  1212   0012CC  0100               	movlb	0	; () banked
  1213   0012CE  6FAA               	movwf	_ret& (0+255),b
  1214                           
  1215                           ;application.c: 96:                 break;
  1216   0012D0  EF9D  F009         	goto	l3540
  1217   0012D4                     l3534:
  1218                           
  1219                           ;application.c: 98:                 ret = convert_uint16_to_string((number1 / number2), 
      +                          result);
  1220   0012D4  C04C  F001         	movff	main@number1,___lwdiv@dividend
  1221   0012D8  C04D  F002         	movff	main@number1+1,___lwdiv@dividend+1
  1222   0012DC  C04E  F003         	movff	main@number2,___lwdiv@divisor
  1223   0012E0  C04F  F004         	movff	main@number2+1,___lwdiv@divisor+1
  1224   0012E4  ECEF  F00E         	call	___lwdiv	;wreg free
  1225   0012E8  C001  F02B         	movff	?___lwdiv,convert_uint16_to_string@value
  1226   0012EC  C002  F02C         	movff	?___lwdiv+1,convert_uint16_to_string@value+1
  1227   0012F0  0E3D               	movlw	low main@result
  1228   0012F2  6E2D               	movwf	convert_uint16_to_string@str^0,c
  1229   0012F4  EC44  F010         	call	_convert_uint16_to_string	;wreg free
  1230   0012F8  0100               	movlb	0	; () banked
  1231   0012FA  6FAA               	movwf	_ret& (0+255),b
  1232                           
  1233                           ;application.c: 99:                 break;
  1234   0012FC  EF9D  F009         	goto	l3540
  1235   001300                     l3538:
  1236   001300  5049               	movf	main@operation^0,w,c
  1237   001302  6E2F               	movwf	??_main^0,c
  1238   001304  6A30               	clrf	(??_main+1)^0,c
  1239                           
  1240                           ; Switch on 2 bytes has been partitioned into a top level switch of size 1, and 1 sub-sw
      +                          itches
  1241                           ; Switch size 1, requested type "simple"
  1242                           ; Number of cases is 1, Range of values is 0 to 0
  1243                           ; switch strategies available:
  1244                           ; Name         Instructions Cycles
  1245                           ; simple_byte            4     3 (average)
  1246                           ;	Chosen strategy is simple_byte
  1247   001306  5030               	movf	(??_main+1)^0,w,c
  1248   001308  0A00               	xorlw	0	; case 0
  1249   00130A  B4D8               	btfsc	status,2,c
  1250   00130C  EF8A  F009         	goto	l3630
  1251   001310  EF9D  F009         	goto	l3540
  1252   001314                     l3630:
  1253                           
  1254                           ; Switch size 1, requested type "simple"
  1255                           ; Number of cases is 4, Range of values is 42 to 47
  1256                           ; switch strategies available:
  1257                           ; Name         Instructions Cycles
  1258                           ; simple_byte           13     7 (average)
  1259                           ;	Chosen strategy is simple_byte
  1260   001314  502F               	movf	??_main^0,w,c
  1261   001316  0A2A               	xorlw	42	; case 42
  1262   001318  B4D8               	btfsc	status,2,c
  1263   00131A  EF54  F009         	goto	l3532
  1264   00131E  0A01               	xorlw	1	; case 43
  1265   001320  B4D8               	btfsc	status,2,c
  1266   001322  EF38  F009         	goto	l3528
  1267   001326  0A06               	xorlw	6	; case 45
  1268   001328  B4D8               	btfsc	status,2,c
  1269   00132A  EF46  F009         	goto	l3530
  1270   00132E  0A02               	xorlw	2	; case 47
  1271   001330  B4D8               	btfsc	status,2,c
  1272   001332  EF6A  F009         	goto	l3534
  1273   001336  EF9D  F009         	goto	l3540
  1274   00133A                     l3540:
  1275                           
  1276                           ;application.c: 103:         ret = lcd_4bit_send_string_pos(&lcd_1, 1, counter2+2, resul
      +                          t);
  1277   00133A  0E6E               	movlw	low _lcd_1
  1278   00133C  6E15               	movwf	lcd_4bit_send_string_pos@lcd^0,c
  1279   00133E  0E01               	movlw	1
  1280   001340  6E16               	movwf	lcd_4bit_send_string_pos@row^0,c
  1281   001342  504B               	movf	main@counter2^0,w,c
  1282   001344  0F02               	addlw	2
  1283   001346  6E17               	movwf	lcd_4bit_send_string_pos@colomn^0,c
  1284   001348  0E3D               	movlw	low main@result
  1285   00134A  6E18               	movwf	lcd_4bit_send_string_pos@str^0,c
  1286   00134C  6A19               	clrf	(lcd_4bit_send_string_pos@str+1)^0,c
  1287   00134E  EC0C  F00E         	call	_lcd_4bit_send_string_pos	;wreg free
  1288   001352  0100               	movlb	0	; () banked
  1289   001354  6FAA               	movwf	_ret& (0+255),b
  1290   001356                     
  1291                           ; BSR set to: 0
  1292                           ;application.c: 105:         _delay((unsigned long)((3000)*(4000000UL/4000.0)));
  1293   001356  0E10               	movlw	16
  1294   001358  6E30               	movwf	(??_main+1)^0,c
  1295   00135A  0E39               	movlw	57
  1296   00135C  6E2F               	movwf	??_main^0,c
  1297   00135E  0E0E               	movlw	14
  1298   001360                     u2717:
  1299   001360  2EE8               	decfsz	wreg,f,c
  1300   001362  D7FE               	bra	u2717
  1301   001364  2E2F               	decfsz	??_main^0,f,c
  1302   001366  D7FC               	bra	u2717
  1303   001368  2E30               	decfsz	(??_main+1)^0,f,c
  1304   00136A  D7FA               	bra	u2717
  1305   00136C  EF6A  F008         	goto	l3466
  1306   001370  EF00  F000         	goto	start
  1307   001374                     __end_of_main:
  1308                           	callstack 0
  1309                           
  1310 ;; *************** function _lcd_4bit_send_string_pos *****************
  1311 ;; Defined at:
  1312 ;;		line 112 in file "ECU_Layer/Chr_LCD/ecu_chr_lcd.c"
  1313 ;; Parameters:    Size  Location     Type
  1314 ;;  lcd             1   20[COMRAM] PTR const struct .
  1315 ;;		 -> lcd_1(6), 
  1316 ;;  row             1   21[COMRAM] unsigned char 
  1317 ;;  colomn          1   22[COMRAM] unsigned char 
  1318 ;;  str             2   23[COMRAM] PTR unsigned char 
  1319 ;;		 -> main@result(12), STR_6(19), STR_5(8), STR_4(18), 
  1320 ;; Auto vars:     Size  Location     Type
  1321 ;;  ret             1   25[COMRAM] unsigned char 
  1322 ;; Return value:  Size  Location     Type
  1323 ;;                  1    wreg      unsigned char 
  1324 ;; Registers used:
  1325 ;;		wreg, fsr0l, fsr0h, fsr2l, fsr2h, status,2, status,0, tblptrl, tblptrh, tblptru, prodl, prodh, cstack
  1326 ;; Tracked objects:
  1327 ;;		On entry : 0/0
  1328 ;;		On exit  : 0/0
  1329 ;;		Unchanged: 0/0
  1330 ;; Data sizes:     COMRAM   BANK0   BANK1   BANK2   BANK3   BANK4   BANK5   BANK6   BANK7   BANK8   BANK9  BANK10  BANK1
      +1  BANK12  BANK13  BANK14  BANK15
  1331 ;;      Params:         5       0       0       0       0       0       0       0       0       0       0       0       
      +0       0       0       0       0
  1332 ;;      Locals:         1       0       0       0       0       0       0       0       0       0       0       0       
      +0       0       0       0       0
  1333 ;;      Temps:          0       0       0       0       0       0       0       0       0       0       0       0       
      +0       0       0       0       0
  1334 ;;      Totals:         6       0       0       0       0       0       0       0       0       0       0       0       
      +0       0       0       0       0
  1335 ;;Total ram usage:        6 bytes
  1336 ;; Hardware stack levels used: 1
  1337 ;; Hardware stack levels required when called: 4
  1338 ;; This function calls:
  1339 ;;		_lcd_4bit_send_char_data
  1340 ;;		_lcd_4bits_set_cursor
  1341 ;; This function is called by:
  1342 ;;		_main
  1343 ;; This function uses a non-reentrant model
  1344 ;;
  1345                           
  1346                           	psect	text1
  1347   001C18                     __ptext1:
  1348                           	callstack 0
  1349   001C18                     _lcd_4bit_send_string_pos:
  1350                           	callstack 26
  1351   001C18                     
  1352                           ;ECU_Layer/Chr_LCD/ecu_chr_lcd.c: 113:     Std_ReturnType ret = (Std_ReturnType)0x01;
  1353   001C18  0E01               	movlw	1
  1354   001C1A  6E1A               	movwf	lcd_4bit_send_string_pos@ret^0,c
  1355                           
  1356                           ;ECU_Layer/Chr_LCD/ecu_chr_lcd.c: 114:      if(((void*)0) == lcd || ((void*)0) == str)
  1357   001C1C  5015               	movf	lcd_4bit_send_string_pos@lcd^0,w,c
  1358   001C1E  B4D8               	btfsc	status,2,c
  1359   001C20  EF14  F00E         	goto	u2031
  1360   001C24  EF16  F00E         	goto	u2030
  1361   001C28                     u2031:
  1362   001C28  EF1F  F00E         	goto	l2924
  1363   001C2C                     u2030:
  1364   001C2C  5018               	movf	lcd_4bit_send_string_pos@str^0,w,c
  1365   001C2E  1019               	iorwf	(lcd_4bit_send_string_pos@str+1)^0,w,c
  1366   001C30  A4D8               	btfss	status,2,c
  1367   001C32  EF1D  F00E         	goto	u2041
  1368   001C36  EF1F  F00E         	goto	u2040
  1369   001C3A                     u2041:
  1370   001C3A  EF23  F00E         	goto	l2926
  1371   001C3E                     u2040:
  1372   001C3E                     l2924:
  1373                           
  1374                           ;ECU_Layer/Chr_LCD/ecu_chr_lcd.c: 115:      {;ECU_Layer/Chr_LCD/ecu_chr_lcd.c: 116:     
      +                              ret = (Std_ReturnType)0x00 ;
  1375   001C3E  0E00               	movlw	0
  1376   001C40  6E1A               	movwf	lcd_4bit_send_string_pos@ret^0,c
  1377                           
  1378                           ;ECU_Layer/Chr_LCD/ecu_chr_lcd.c: 117:      }
  1379   001C42  EF5E  F00E         	goto	l2934
  1380   001C46                     l2926:
  1381                           
  1382                           ;ECU_Layer/Chr_LCD/ecu_chr_lcd.c: 119:      {;ECU_Layer/Chr_LCD/ecu_chr_lcd.c: 120:     
      +                               lcd_4bits_set_cursor(lcd, row, colomn);
  1383   001C46  C015  F00F         	movff	lcd_4bit_send_string_pos@lcd,lcd_4bits_set_cursor@lcd
  1384   001C4A  C016  F010         	movff	lcd_4bit_send_string_pos@row,lcd_4bits_set_cursor@row
  1385   001C4E  C017  F011         	movff	lcd_4bit_send_string_pos@colomn,lcd_4bits_set_cursor@colomn
  1386   001C52  EC07  F00D         	call	_lcd_4bits_set_cursor	;wreg free
  1387                           
  1388                           ;ECU_Layer/Chr_LCD/ecu_chr_lcd.c: 121:          while(*str){
  1389   001C56  EF45  F00E         	goto	l2932
  1390   001C5A                     l2928:
  1391                           
  1392                           ;ECU_Layer/Chr_LCD/ecu_chr_lcd.c: 122:          lcd_4bit_send_char_data(lcd, *str++);
  1393   001C5A  C015  F00C         	movff	lcd_4bit_send_string_pos@lcd,lcd_4bit_send_char_data@lcd
  1394   001C5E  C018  FFF6         	movff	lcd_4bit_send_string_pos@str,tblptrl
  1395   001C62  C019  FFF7         	movff	lcd_4bit_send_string_pos@str+1,tblptrh
  1396   001C66  0E00               	movlw	low (__smallconst shr (0+16))
  1397   001C68  6EF8               	movwf	tblptru,c
  1398   001C6A  0E0F               	movlw	(high __ramtop+-1)
  1399   001C6C  64F7               	cpfsgt	tblptrh,c
  1400   001C6E  D003               	bra	u2057
  1401   001C70  0008               	tblrd		*
  1402   001C72  50F5               	movf	tablat,w,c
  1403   001C74  D005               	bra	u2050
  1404   001C76                     u2057:
  1405   001C76  CFF6 FFE9          	movff	tblptrl,fsr0l
  1406   001C7A  CFF7 FFEA          	movff	tblptrh,fsr0h
  1407   001C7E  50EF               	movf	indf0,w,c
  1408   001C80                     u2050:
  1409   001C80  6E0D               	movwf	lcd_4bit_send_char_data@data^0,c
  1410   001C82  ECF0  F00F         	call	_lcd_4bit_send_char_data	;wreg free
  1411   001C86  4A18               	infsnz	lcd_4bit_send_string_pos@str^0,f,c
  1412   001C88  2A19               	incf	(lcd_4bit_send_string_pos@str+1)^0,f,c
  1413   001C8A                     l2932:
  1414                           
  1415                           ;ECU_Layer/Chr_LCD/ecu_chr_lcd.c: 121:          while(*str){
  1416   001C8A  C018  FFF6         	movff	lcd_4bit_send_string_pos@str,tblptrl
  1417   001C8E  C019  FFF7         	movff	lcd_4bit_send_string_pos@str+1,tblptrh
  1418   001C92  0E00               	movlw	low (__smallconst shr (0+16))
  1419   001C94  6EF8               	movwf	tblptru,c
  1420   001C96  0E0F               	movlw	(high __ramtop+-1)
  1421   001C98  64F7               	cpfsgt	tblptrh,c
  1422   001C9A  D003               	bra	u2067
  1423   001C9C  0008               	tblrd		*
  1424   001C9E  50F5               	movf	tablat,w,c
  1425   001CA0  D005               	bra	u2060
  1426   001CA2                     u2067:
  1427   001CA2  CFF6 FFE9          	movff	tblptrl,fsr0l
  1428   001CA6  CFF7 FFEA          	movff	tblptrh,fsr0h
  1429   001CAA  50EF               	movf	indf0,w,c
  1430   001CAC                     u2060:
  1431   001CAC  0900               	iorlw	0
  1432   001CAE  A4D8               	btfss	status,2,c
  1433   001CB0  EF5C  F00E         	goto	u2071
  1434   001CB4  EF5E  F00E         	goto	u2070
  1435   001CB8                     u2071:
  1436   001CB8  EF2D  F00E         	goto	l2928
  1437   001CBC                     u2070:
  1438   001CBC                     l2934:
  1439                           
  1440                           ;ECU_Layer/Chr_LCD/ecu_chr_lcd.c: 125:     return ret;
  1441   001CBC  501A               	movf	lcd_4bit_send_string_pos@ret^0,w,c
  1442   001CBE  0012               	return		;funcret
  1443   001CC0                     __end_of_lcd_4bit_send_string_pos:
  1444                           	callstack 0
  1445                           
  1446 ;; *************** function _lcd_4bit_send_char_data_pos *****************
  1447 ;; Defined at:
  1448 ;;		line 82 in file "ECU_Layer/Chr_LCD/ecu_chr_lcd.c"
  1449 ;; Parameters:    Size  Location     Type
  1450 ;;  lcd             1   20[COMRAM] PTR const struct .
  1451 ;;		 -> lcd_1(6), 
  1452 ;;  row             1   21[COMRAM] unsigned char 
  1453 ;;  colomn          1   22[COMRAM] unsigned char 
  1454 ;;  data            1   23[COMRAM] unsigned char 
  1455 ;; Auto vars:     Size  Location     Type
  1456 ;;  ret             1   24[COMRAM] unsigned char 
  1457 ;; Return value:  Size  Location     Type
  1458 ;;                  1    wreg      unsigned char 
  1459 ;; Registers used:
  1460 ;;		wreg, fsr2l, fsr2h, status,2, status,0, prodl, prodh, cstack
  1461 ;; Tracked objects:
  1462 ;;		On entry : 0/0
  1463 ;;		On exit  : 0/0
  1464 ;;		Unchanged: 0/0
  1465 ;; Data sizes:     COMRAM   BANK0   BANK1   BANK2   BANK3   BANK4   BANK5   BANK6   BANK7   BANK8   BANK9  BANK10  BANK1
      +1  BANK12  BANK13  BANK14  BANK15
  1466 ;;      Params:         4       0       0       0       0       0       0       0       0       0       0       0       
      +0       0       0       0       0
  1467 ;;      Locals:         1       0       0       0       0       0       0       0       0       0       0       0       
      +0       0       0       0       0
  1468 ;;      Temps:          0       0       0       0       0       0       0       0       0       0       0       0       
      +0       0       0       0       0
  1469 ;;      Totals:         5       0       0       0       0       0       0       0       0       0       0       0       
      +0       0       0       0       0
  1470 ;;Total ram usage:        5 bytes
  1471 ;; Hardware stack levels used: 1
  1472 ;; Hardware stack levels required when called: 4
  1473 ;; This function calls:
  1474 ;;		_lcd_4bit_send_char_data
  1475 ;;		_lcd_4bits_set_cursor
  1476 ;; This function is called by:
  1477 ;;		_main
  1478 ;;		_lcd_4bit_send_custom_char
  1479 ;; This function uses a non-reentrant model
  1480 ;;
  1481                           
  1482                           	psect	text2
  1483   002150                     __ptext2:
  1484                           	callstack 0
  1485   002150                     _lcd_4bit_send_char_data_pos:
  1486                           	callstack 26
  1487   002150                     
  1488                           ;ECU_Layer/Chr_LCD/ecu_chr_lcd.c: 84:      if(((void*)0) == lcd)
  1489   002150  5015               	movf	lcd_4bit_send_char_data_pos@lcd^0,w,c
  1490   002152  A4D8               	btfss	status,2,c
  1491   002154  EFAE  F010         	goto	u2021
  1492   002158  EFB0  F010         	goto	u2020
  1493   00215C                     u2021:
  1494   00215C  EFB4  F010         	goto	l2914
  1495   002160                     u2020:
  1496   002160                     
  1497                           ;ECU_Layer/Chr_LCD/ecu_chr_lcd.c: 85:      {;ECU_Layer/Chr_LCD/ecu_chr_lcd.c: 86:       
      +                            ret = (Std_ReturnType)0x00 ;
  1498   002160  0E00               	movlw	0
  1499   002162  6E19               	movwf	lcd_4bit_send_char_data_pos@ret^0,c
  1500                           
  1501                           ;ECU_Layer/Chr_LCD/ecu_chr_lcd.c: 87:      }
  1502   002164  EFC4  F010         	goto	l2916
  1503   002168                     l2914:
  1504                           
  1505                           ;ECU_Layer/Chr_LCD/ecu_chr_lcd.c: 89:      {;ECU_Layer/Chr_LCD/ecu_chr_lcd.c: 90:       
      +                            ret = lcd_4bits_set_cursor(lcd, row, colomn);
  1506   002168  C015  F00F         	movff	lcd_4bit_send_char_data_pos@lcd,lcd_4bits_set_cursor@lcd
  1507   00216C  C016  F010         	movff	lcd_4bit_send_char_data_pos@row,lcd_4bits_set_cursor@row
  1508   002170  C017  F011         	movff	lcd_4bit_send_char_data_pos@colomn,lcd_4bits_set_cursor@colomn
  1509   002174  EC07  F00D         	call	_lcd_4bits_set_cursor	;wreg free
  1510   002178  6E19               	movwf	lcd_4bit_send_char_data_pos@ret^0,c
  1511                           
  1512                           ;ECU_Layer/Chr_LCD/ecu_chr_lcd.c: 91:         ret = lcd_4bit_send_char_data(lcd, data);
  1513   00217A  C015  F00C         	movff	lcd_4bit_send_char_data_pos@lcd,lcd_4bit_send_char_data@lcd
  1514   00217E  C018  F00D         	movff	lcd_4bit_send_char_data_pos@data,lcd_4bit_send_char_data@data
  1515   002182  ECF0  F00F         	call	_lcd_4bit_send_char_data	;wreg free
  1516   002186  6E19               	movwf	lcd_4bit_send_char_data_pos@ret^0,c
  1517   002188                     l2916:
  1518                           
  1519                           ;ECU_Layer/Chr_LCD/ecu_chr_lcd.c: 93:     return ret;
  1520   002188  5019               	movf	lcd_4bit_send_char_data_pos@ret^0,w,c
  1521   00218A  0012               	return		;funcret
  1522   00218C                     __end_of_lcd_4bit_send_char_data_pos:
  1523                           	callstack 0
  1524                           
  1525 ;; *************** function _lcd_4bits_set_cursor *****************
  1526 ;; Defined at:
  1527 ;;		line 396 in file "ECU_Layer/Chr_LCD/ecu_chr_lcd.c"
  1528 ;; Parameters:    Size  Location     Type
  1529 ;;  lcd             1   14[COMRAM] PTR const struct .
  1530 ;;		 -> lcd_1(6), 
  1531 ;;  row             1   15[COMRAM] unsigned char 
  1532 ;;  colomn          1   16[COMRAM] unsigned char 
  1533 ;; Auto vars:     Size  Location     Type
  1534 ;;  ret             1   19[COMRAM] unsigned char 
  1535 ;; Return value:  Size  Location     Type
  1536 ;;                  1    wreg      unsigned char 
  1537 ;; Registers used:
  1538 ;;		wreg, fsr2l, fsr2h, status,2, status,0, prodl, prodh, cstack
  1539 ;; Tracked objects:
  1540 ;;		On entry : 0/0
  1541 ;;		On exit  : 0/0
  1542 ;;		Unchanged: 0/0
  1543 ;; Data sizes:     COMRAM   BANK0   BANK1   BANK2   BANK3   BANK4   BANK5   BANK6   BANK7   BANK8   BANK9  BANK10  BANK1
      +1  BANK12  BANK13  BANK14  BANK15
  1544 ;;      Params:         3       0       0       0       0       0       0       0       0       0       0       0       
      +0       0       0       0       0
  1545 ;;      Locals:         1       0       0       0       0       0       0       0       0       0       0       0       
      +0       0       0       0       0
  1546 ;;      Temps:          2       0       0       0       0       0       0       0       0       0       0       0       
      +0       0       0       0       0
  1547 ;;      Totals:         6       0       0       0       0       0       0       0       0       0       0       0       
      +0       0       0       0       0
  1548 ;;Total ram usage:        6 bytes
  1549 ;; Hardware stack levels used: 1
  1550 ;; Hardware stack levels required when called: 3
  1551 ;; This function calls:
  1552 ;;		_lcd_4bit_send_command
  1553 ;; This function is called by:
  1554 ;;		_lcd_4bit_send_char_data_pos
  1555 ;;		_lcd_4bit_send_string_pos
  1556 ;; This function uses a non-reentrant model
  1557 ;;
  1558                           
  1559                           	psect	text3
  1560   001A0E                     __ptext3:
  1561                           	callstack 0
  1562   001A0E                     _lcd_4bits_set_cursor:
  1563                           	callstack 26
  1564   001A0E                     
  1565                           ;ECU_Layer/Chr_LCD/ecu_chr_lcd.c: 397:     Std_ReturnType ret = (Std_ReturnType)0x01;
  1566   001A0E  0E01               	movlw	1
  1567   001A10  6E14               	movwf	lcd_4bits_set_cursor@ret^0,c
  1568                           
  1569                           ;ECU_Layer/Chr_LCD/ecu_chr_lcd.c: 398:     if(((void*)0) == lcd)
  1570   001A12  500F               	movf	lcd_4bits_set_cursor@lcd^0,w,c
  1571   001A14  A4D8               	btfss	status,2,c
  1572   001A16  EF0F  F00D         	goto	u1961
  1573   001A1A  EF11  F00D         	goto	u1960
  1574   001A1E                     u1961:
  1575   001A1E  EF15  F00D         	goto	l2822
  1576   001A22                     u1960:
  1577   001A22                     
  1578                           ;ECU_Layer/Chr_LCD/ecu_chr_lcd.c: 399:     {;ECU_Layer/Chr_LCD/ecu_chr_lcd.c: 400:      
      +                             ret = (Std_ReturnType)0x00 ;
  1579   001A22  0E00               	movlw	0
  1580   001A24  6E14               	movwf	lcd_4bits_set_cursor@ret^0,c
  1581                           
  1582                           ;ECU_Layer/Chr_LCD/ecu_chr_lcd.c: 401:     }
  1583   001A26  EF5D  F00D         	goto	l2834
  1584   001A2A                     l2822:
  1585                           
  1586                           ;ECU_Layer/Chr_LCD/ecu_chr_lcd.c: 403:     {;ECU_Layer/Chr_LCD/ecu_chr_lcd.c: 404:      
      +                             colomn--;
  1587   001A2A  0611               	decf	lcd_4bits_set_cursor@colomn^0,f,c
  1588                           
  1589                           ;ECU_Layer/Chr_LCD/ecu_chr_lcd.c: 405:         switch(row)
  1590   001A2C  EF40  F00D         	goto	l2832
  1591   001A30                     l2824:
  1592   001A30  C00F  F00C         	movff	lcd_4bits_set_cursor@lcd,lcd_4bit_send_command@lcd
  1593   001A34  5011               	movf	lcd_4bits_set_cursor@colomn^0,w,c
  1594   001A36  0F80               	addlw	128
  1595   001A38  6E0D               	movwf	lcd_4bit_send_command@command^0,c
  1596   001A3A  EC1A  F010         	call	_lcd_4bit_send_command	;wreg free
  1597   001A3E  6E14               	movwf	lcd_4bits_set_cursor@ret^0,c
  1598   001A40  EF5D  F00D         	goto	l2834
  1599   001A44                     l2826:
  1600   001A44  C00F  F00C         	movff	lcd_4bits_set_cursor@lcd,lcd_4bit_send_command@lcd
  1601   001A48  5011               	movf	lcd_4bits_set_cursor@colomn^0,w,c
  1602   001A4A  0FC0               	addlw	192
  1603   001A4C  6E0D               	movwf	lcd_4bit_send_command@command^0,c
  1604   001A4E  EC1A  F010         	call	_lcd_4bit_send_command	;wreg free
  1605   001A52  6E14               	movwf	lcd_4bits_set_cursor@ret^0,c
  1606   001A54  EF5D  F00D         	goto	l2834
  1607   001A58                     l2828:
  1608   001A58  C00F  F00C         	movff	lcd_4bits_set_cursor@lcd,lcd_4bit_send_command@lcd
  1609   001A5C  5011               	movf	lcd_4bits_set_cursor@colomn^0,w,c
  1610   001A5E  0F94               	addlw	148
  1611   001A60  6E0D               	movwf	lcd_4bit_send_command@command^0,c
  1612   001A62  EC1A  F010         	call	_lcd_4bit_send_command	;wreg free
  1613   001A66  6E14               	movwf	lcd_4bits_set_cursor@ret^0,c
  1614   001A68  EF5D  F00D         	goto	l2834
  1615   001A6C                     l2830:
  1616   001A6C  C00F  F00C         	movff	lcd_4bits_set_cursor@lcd,lcd_4bit_send_command@lcd
  1617   001A70  5011               	movf	lcd_4bits_set_cursor@colomn^0,w,c
  1618   001A72  0FD4               	addlw	212
  1619   001A74  6E0D               	movwf	lcd_4bit_send_command@command^0,c
  1620   001A76  EC1A  F010         	call	_lcd_4bit_send_command	;wreg free
  1621   001A7A  6E14               	movwf	lcd_4bits_set_cursor@ret^0,c
  1622   001A7C  EF5D  F00D         	goto	l2834
  1623   001A80                     l2832:
  1624   001A80  5010               	movf	lcd_4bits_set_cursor@row^0,w,c
  1625   001A82  6E12               	movwf	??_lcd_4bits_set_cursor^0,c
  1626   001A84  6A13               	clrf	(??_lcd_4bits_set_cursor+1)^0,c
  1627                           
  1628                           ; Switch on 2 bytes has been partitioned into a top level switch of size 1, and 1 sub-sw
      +                          itches
  1629                           ; Switch size 1, requested type "simple"
  1630                           ; Number of cases is 1, Range of values is 0 to 0
  1631                           ; switch strategies available:
  1632                           ; Name         Instructions Cycles
  1633                           ; simple_byte            4     3 (average)
  1634                           ;	Chosen strategy is simple_byte
  1635   001A86  5013               	movf	(??_lcd_4bits_set_cursor+1)^0,w,c
  1636   001A88  0A00               	xorlw	0	; case 0
  1637   001A8A  B4D8               	btfsc	status,2,c
  1638   001A8C  EF4A  F00D         	goto	l3632
  1639   001A90  EF5D  F00D         	goto	l2834
  1640   001A94                     l3632:
  1641                           
  1642                           ; Switch size 1, requested type "simple"
  1643                           ; Number of cases is 4, Range of values is 1 to 4
  1644                           ; switch strategies available:
  1645                           ; Name         Instructions Cycles
  1646                           ; simple_byte           13     7 (average)
  1647                           ;	Chosen strategy is simple_byte
  1648   001A94  5012               	movf	??_lcd_4bits_set_cursor^0,w,c
  1649   001A96  0A01               	xorlw	1	; case 1
  1650   001A98  B4D8               	btfsc	status,2,c
  1651   001A9A  EF18  F00D         	goto	l2824
  1652   001A9E  0A03               	xorlw	3	; case 2
  1653   001AA0  B4D8               	btfsc	status,2,c
  1654   001AA2  EF22  F00D         	goto	l2826
  1655   001AA6  0A01               	xorlw	1	; case 3
  1656   001AA8  B4D8               	btfsc	status,2,c
  1657   001AAA  EF2C  F00D         	goto	l2828
  1658   001AAE  0A07               	xorlw	7	; case 4
  1659   001AB0  B4D8               	btfsc	status,2,c
  1660   001AB2  EF36  F00D         	goto	l2830
  1661   001AB6  EF5D  F00D         	goto	l2834
  1662   001ABA                     l2834:
  1663                           
  1664                           ;ECU_Layer/Chr_LCD/ecu_chr_lcd.c: 414:     return ret;
  1665   001ABA  5014               	movf	lcd_4bits_set_cursor@ret^0,w,c
  1666   001ABC  0012               	return		;funcret
  1667   001ABE                     __end_of_lcd_4bits_set_cursor:
  1668                           	callstack 0
  1669                           
  1670 ;; *************** function _lcd_4bit_send_char_data *****************
  1671 ;; Defined at:
  1672 ;;		line 65 in file "ECU_Layer/Chr_LCD/ecu_chr_lcd.c"
  1673 ;; Parameters:    Size  Location     Type
  1674 ;;  lcd             1   11[COMRAM] PTR const struct .
  1675 ;;		 -> lcd_1(6), 
  1676 ;;  data            1   12[COMRAM] unsigned char 
  1677 ;; Auto vars:     Size  Location     Type
  1678 ;;  ret             1   13[COMRAM] unsigned char 
  1679 ;; Return value:  Size  Location     Type
  1680 ;;                  1    wreg      unsigned char 
  1681 ;; Registers used:
  1682 ;;		wreg, fsr2l, fsr2h, status,2, status,0, prodl, prodh, cstack
  1683 ;; Tracked objects:
  1684 ;;		On entry : 0/0
  1685 ;;		On exit  : 0/0
  1686 ;;		Unchanged: 0/0
  1687 ;; Data sizes:     COMRAM   BANK0   BANK1   BANK2   BANK3   BANK4   BANK5   BANK6   BANK7   BANK8   BANK9  BANK10  BANK1
      +1  BANK12  BANK13  BANK14  BANK15
  1688 ;;      Params:         2       0       0       0       0       0       0       0       0       0       0       0       
      +0       0       0       0       0
  1689 ;;      Locals:         1       0       0       0       0       0       0       0       0       0       0       0       
      +0       0       0       0       0
  1690 ;;      Temps:          0       0       0       0       0       0       0       0       0       0       0       0       
      +0       0       0       0       0
  1691 ;;      Totals:         3       0       0       0       0       0       0       0       0       0       0       0       
      +0       0       0       0       0
  1692 ;;Total ram usage:        3 bytes
  1693 ;; Hardware stack levels used: 1
  1694 ;; Hardware stack levels required when called: 2
  1695 ;; This function calls:
  1696 ;;		_gpio_pin_write_logic
  1697 ;;		_lcd_4bits_send_enable_signal
  1698 ;;		_lcd_send_4bits
  1699 ;; This function is called by:
  1700 ;;		_lcd_4bit_send_char_data_pos
  1701 ;;		_lcd_4bit_send_string_pos
  1702 ;;		_lcd_4bit_send_string
  1703 ;;		_lcd_4bit_send_custom_char
  1704 ;; This function uses a non-reentrant model
  1705 ;;
  1706                           
  1707                           	psect	text4
  1708   001FE0                     __ptext4:
  1709                           	callstack 0
  1710   001FE0                     _lcd_4bit_send_char_data:
  1711                           	callstack 27
  1712   001FE0                     
  1713                           ;ECU_Layer/Chr_LCD/ecu_chr_lcd.c: 67:      if(((void*)0) == lcd)
  1714   001FE0  500C               	movf	lcd_4bit_send_char_data@lcd^0,w,c
  1715   001FE2  A4D8               	btfss	status,2,c
  1716   001FE4  EFF6  F00F         	goto	u1951
  1717   001FE8  EFF8  F00F         	goto	u1950
  1718   001FEC                     u1951:
  1719   001FEC  EFFC  F00F         	goto	l2812
  1720   001FF0                     u1950:
  1721   001FF0                     
  1722                           ;ECU_Layer/Chr_LCD/ecu_chr_lcd.c: 68:      {;ECU_Layer/Chr_LCD/ecu_chr_lcd.c: 69:       
      +                            ret = (Std_ReturnType)0x00 ;
  1723   001FF0  0E00               	movlw	0
  1724   001FF2  6E0E               	movwf	lcd_4bit_send_char_data@ret^0,c
  1725                           
  1726                           ;ECU_Layer/Chr_LCD/ecu_chr_lcd.c: 70:      }
  1727   001FF4  EF18  F010         	goto	l2814
  1728   001FF8                     l2812:
  1729                           
  1730                           ;ECU_Layer/Chr_LCD/ecu_chr_lcd.c: 72:      {;ECU_Layer/Chr_LCD/ecu_chr_lcd.c: 73:       
      +                             ret = gpio_pin_write_logic(&(lcd->lcd_rs), GPIO_HIGH);
  1731   001FF8  C00C  F001         	movff	lcd_4bit_send_char_data@lcd,gpio_pin_write_logic@_pin_config
  1732   001FFC  0E01               	movlw	1
  1733   001FFE  6E02               	movwf	gpio_pin_write_logic@logic^0,c
  1734   002000  EC2B  F00B         	call	_gpio_pin_write_logic	;wreg free
  1735   002004  6E0E               	movwf	lcd_4bit_send_char_data@ret^0,c
  1736                           
  1737                           ;ECU_Layer/Chr_LCD/ecu_chr_lcd.c: 74:          lcd_send_4bits(lcd, data >> 4);
  1738   002006  C00C  F009         	movff	lcd_4bit_send_char_data@lcd,lcd_send_4bits@lcd
  1739   00200A  380D               	swapf	lcd_4bit_send_char_data@data^0,w,c
  1740   00200C  0B0F               	andlw	15
  1741   00200E  6E0A               	movwf	lcd_send_4bits@_data_command^0,c
  1742   002010  EC29  F00F         	call	_lcd_send_4bits	;wreg free
  1743                           
  1744                           ;ECU_Layer/Chr_LCD/ecu_chr_lcd.c: 75:          lcd_4bits_send_enable_signal(lcd);
  1745   002014  C00C  F009         	movff	lcd_4bit_send_char_data@lcd,lcd_4bits_send_enable_signal@lcd
  1746   002018  EC89  F010         	call	_lcd_4bits_send_enable_signal	;wreg free
  1747                           
  1748                           ;ECU_Layer/Chr_LCD/ecu_chr_lcd.c: 76:          lcd_send_4bits(lcd, data);
  1749   00201C  C00C  F009         	movff	lcd_4bit_send_char_data@lcd,lcd_send_4bits@lcd
  1750   002020  C00D  F00A         	movff	lcd_4bit_send_char_data@data,lcd_send_4bits@_data_command
  1751   002024  EC29  F00F         	call	_lcd_send_4bits	;wreg free
  1752                           
  1753                           ;ECU_Layer/Chr_LCD/ecu_chr_lcd.c: 77:          lcd_4bits_send_enable_signal(lcd);
  1754   002028  C00C  F009         	movff	lcd_4bit_send_char_data@lcd,lcd_4bits_send_enable_signal@lcd
  1755   00202C  EC89  F010         	call	_lcd_4bits_send_enable_signal	;wreg free
  1756   002030                     l2814:
  1757                           
  1758                           ;ECU_Layer/Chr_LCD/ecu_chr_lcd.c: 79:     return ret;
  1759   002030  500E               	movf	lcd_4bit_send_char_data@ret^0,w,c
  1760   002032  0012               	return		;funcret
  1761   002034                     __end_of_lcd_4bit_send_char_data:
  1762                           	callstack 0
  1763                           
  1764 ;; *************** function _keypad_get_value *****************
  1765 ;; Defined at:
  1766 ;;		line 54 in file "ECU_Layer/KeyPad/ecu_keypad.c"
  1767 ;; Parameters:    Size  Location     Type
  1768 ;;  _keypad_obj     1    8[COMRAM] PTR const struct .
  1769 ;;		 -> keypad_1(8), 
  1770 ;;  keypad_value    1    9[COMRAM] PTR unsigned char 
  1771 ;;		 -> main@KeypadValue(1), 
  1772 ;; Auto vars:     Size  Location     Type
  1773 ;;  l_coloumns_c    1   15[COMRAM] unsigned char 
  1774 ;;  l_rows_count    1   14[COMRAM] unsigned char 
  1775 ;;  l_counter       1   13[COMRAM] unsigned char 
  1776 ;;  column_logic    1   12[COMRAM] unsigned char 
  1777 ;;  ret             1   11[COMRAM] unsigned char 
  1778 ;; Return value:  Size  Location     Type
  1779 ;;                  1    wreg      unsigned char 
  1780 ;; Registers used:
  1781 ;;		wreg, fsr1l, fsr1h, fsr2l, fsr2h, status,2, status,0, tblptrl, tblptrh, tblptru, prodl, prodh, cstack
  1782 ;; Tracked objects:
  1783 ;;		On entry : 0/0
  1784 ;;		On exit  : 0/0
  1785 ;;		Unchanged: 0/0
  1786 ;; Data sizes:     COMRAM   BANK0   BANK1   BANK2   BANK3   BANK4   BANK5   BANK6   BANK7   BANK8   BANK9  BANK10  BANK1
      +1  BANK12  BANK13  BANK14  BANK15
  1787 ;;      Params:         2       0       0       0       0       0       0       0       0       0       0       0       
      +0       0       0       0       0
  1788 ;;      Locals:         5       0       0       0       0       0       0       0       0       0       0       0       
      +0       0       0       0       0
  1789 ;;      Temps:          1       0       0       0       0       0       0       0       0       0       0       0       
      +0       0       0       0       0
  1790 ;;      Totals:         8       0       0       0       0       0       0       0       0       0       0       0       
      +0       0       0       0       0
  1791 ;;Total ram usage:        8 bytes
  1792 ;; Hardware stack levels used: 1
  1793 ;; Hardware stack levels required when called: 1
  1794 ;; This function calls:
  1795 ;;		_gpio_pin_read_logic
  1796 ;;		_gpio_pin_write_logic
  1797 ;; This function is called by:
  1798 ;;		_main
  1799 ;; This function uses a non-reentrant model
  1800 ;;
  1801                           
  1802                           	psect	text5
  1803   001766                     __ptext5:
  1804                           	callstack 0
  1805   001766                     _keypad_get_value:
  1806                           	callstack 29
  1807   001766                     
  1808                           ;ECU_Layer/KeyPad/ecu_keypad.c: 56:     uint8 l_rows_counter = 0, l_coloumns_counter = 0
      +                          , l_counter = 0;
  1809   001766  0E00               	movlw	0
  1810   001768  6E0F               	movwf	keypad_get_value@l_rows_counter^0,c
  1811   00176A  0E00               	movlw	0
  1812   00176C  6E10               	movwf	keypad_get_value@l_coloumns_counter^0,c
  1813   00176E  0E00               	movlw	0
  1814   001770  6E0E               	movwf	keypad_get_value@l_counter^0,c
  1815                           
  1816                           ;ECU_Layer/KeyPad/ecu_keypad.c: 57:     uint8 column_logic = 0;
  1817   001772  0E00               	movlw	0
  1818   001774  6E0D               	movwf	keypad_get_value@column_logic^0,c
  1819                           
  1820                           ;ECU_Layer/KeyPad/ecu_keypad.c: 58:      if((((void*)0) == _keypad_obj) || (((void*)0) =
      +                          = keypad_value))
  1821   001776  5009               	movf	keypad_get_value@_keypad_obj^0,w,c
  1822   001778  B4D8               	btfsc	status,2,c
  1823   00177A  EFC1  F00B         	goto	u2171
  1824   00177E  EFC3  F00B         	goto	u2170
  1825   001782                     u2171:
  1826   001782  EFCB  F00B         	goto	l3020
  1827   001786                     u2170:
  1828   001786  500A               	movf	keypad_get_value@keypad_value^0,w,c
  1829   001788  A4D8               	btfss	status,2,c
  1830   00178A  EFC9  F00B         	goto	u2181
  1831   00178E  EFCB  F00B         	goto	u2180
  1832   001792                     u2181:
  1833   001792  EFCF  F00B         	goto	l3022
  1834   001796                     u2180:
  1835   001796                     l3020:
  1836                           
  1837                           ;ECU_Layer/KeyPad/ecu_keypad.c: 59:      {;ECU_Layer/KeyPad/ecu_keypad.c: 60:         re
      +                          t = (Std_ReturnType)0x00 ;
  1838   001796  0E00               	movlw	0
  1839   001798  6E0C               	movwf	keypad_get_value@ret^0,c
  1840                           
  1841                           ;ECU_Layer/KeyPad/ecu_keypad.c: 61:      }
  1842   00179A  EF2E  F00C         	goto	l3066
  1843   00179E                     l3022:
  1844                           
  1845                           ;ECU_Layer/KeyPad/ecu_keypad.c: 63:      {;ECU_Layer/KeyPad/ecu_keypad.c: 64:           
      +                          for(l_rows_counter = 0;l_rows_counter < 4;l_rows_counter++)
  1846   00179E  0E00               	movlw	0
  1847   0017A0  6E0F               	movwf	keypad_get_value@l_rows_counter^0,c
  1848   0017A2                     l3028:
  1849                           
  1850                           ;ECU_Layer/KeyPad/ecu_keypad.c: 65:          {;ECU_Layer/KeyPad/ecu_keypad.c: 66:       
      +                                  for(l_counter = 0;l_counter < 4;l_counter++)
  1851   0017A2  0E00               	movlw	0
  1852   0017A4  6E0E               	movwf	keypad_get_value@l_counter^0,c
  1853   0017A6                     l3034:
  1854   0017A6  5009               	movf	keypad_get_value@_keypad_obj^0,w,c
  1855   0017A8  240E               	addwf	keypad_get_value@l_counter^0,w,c
  1856   0017AA  6E01               	movwf	gpio_pin_write_logic@_pin_config^0,c
  1857   0017AC  0E00               	movlw	0
  1858   0017AE  6E02               	movwf	gpio_pin_write_logic@logic^0,c
  1859   0017B0  EC2B  F00B         	call	_gpio_pin_write_logic	;wreg free
  1860   0017B4                     
  1861                           ;ECU_Layer/KeyPad/ecu_keypad.c: 69:               }
  1862   0017B4  2A0E               	incf	keypad_get_value@l_counter^0,f,c
  1863   0017B6  0E03               	movlw	3
  1864   0017B8  640E               	cpfsgt	keypad_get_value@l_counter^0,c
  1865   0017BA  EFE1  F00B         	goto	u2191
  1866   0017BE  EFE3  F00B         	goto	u2190
  1867   0017C2                     u2191:
  1868   0017C2  EFD3  F00B         	goto	l3034
  1869   0017C6                     u2190:
  1870   0017C6  5009               	movf	keypad_get_value@_keypad_obj^0,w,c
  1871   0017C8  240F               	addwf	keypad_get_value@l_rows_counter^0,w,c
  1872   0017CA  6E01               	movwf	gpio_pin_write_logic@_pin_config^0,c
  1873   0017CC  0E01               	movlw	1
  1874   0017CE  6E02               	movwf	gpio_pin_write_logic@logic^0,c
  1875   0017D0  EC2B  F00B         	call	_gpio_pin_write_logic	;wreg free
  1876   0017D4                     
  1877                           ;ECU_Layer/KeyPad/ecu_keypad.c: 71:               _delay((unsigned long)((10)*(4000000UL
      +                          /4000.0)));
  1878   0017D4  0E0D               	movlw	13
  1879   0017D6  6E0B               	movwf	??_keypad_get_value^0,c
  1880   0017D8  0EFC               	movlw	252
  1881   0017DA                     u2727:
  1882   0017DA  2EE8               	decfsz	wreg,f,c
  1883   0017DC  D7FE               	bra	u2727
  1884   0017DE  2E0B               	decfsz	??_keypad_get_value^0,f,c
  1885   0017E0  D7FC               	bra	u2727
  1886   0017E2                     
  1887                           ;ECU_Layer/KeyPad/ecu_keypad.c: 72:               for(l_coloumns_counter = 0;l_coloumns_
      +                          counter < 4;l_coloumns_counter++)
  1888   0017E2  0E00               	movlw	0
  1889   0017E4  6E10               	movwf	keypad_get_value@l_coloumns_counter^0,c
  1890   0017E6                     l3050:
  1891                           
  1892                           ;ECU_Layer/KeyPad/ecu_keypad.c: 73:               {;ECU_Layer/KeyPad/ecu_keypad.c: 74:  
      +                                         ret = gpio_pin_read_logic(&(_keypad_obj->keypad_colomns_pins[l_coloumns_c
      +                          ounter]), &column_logic);
  1893   0017E6  5009               	movf	keypad_get_value@_keypad_obj^0,w,c
  1894   0017E8  2410               	addwf	keypad_get_value@l_coloumns_counter^0,w,c
  1895   0017EA  0F04               	addlw	4
  1896   0017EC  6E01               	movwf	gpio_pin_read_logic@_pin_config^0,c
  1897   0017EE  0E0D               	movlw	low keypad_get_value@column_logic
  1898   0017F0  6E02               	movwf	gpio_pin_read_logic@logic^0,c
  1899   0017F2  EC60  F00E         	call	_gpio_pin_read_logic	;wreg free
  1900   0017F6  6E0C               	movwf	keypad_get_value@ret^0,c
  1901   0017F8                     
  1902                           ;ECU_Layer/KeyPad/ecu_keypad.c: 75:                  if(GPIO_HIGH == column_logic)
  1903   0017F8  040D               	decf	keypad_get_value@column_logic^0,w,c
  1904   0017FA  A4D8               	btfss	status,2,c
  1905   0017FC  EF02  F00C         	goto	u2201
  1906   001800  EF04  F00C         	goto	u2200
  1907   001804                     u2201:
  1908   001804  EF14  F00C         	goto	l3056
  1909   001808                     u2200:
  1910   001808                     
  1911                           ;ECU_Layer/KeyPad/ecu_keypad.c: 76:                  {;ECU_Layer/KeyPad/ecu_keypad.c: 77
      +                          :                     *keypad_value = btn_values[l_rows_counter][l_coloumns_counter] ;
  1912   001808  500F               	movf	keypad_get_value@l_rows_counter^0,w,c
  1913   00180A  0D04               	mullw	4
  1914   00180C  50F3               	movf	243,w,c
  1915   00180E  0F01               	addlw	low _btn_values
  1916   001810  2410               	addwf	keypad_get_value@l_coloumns_counter^0,w,c
  1917   001812  6E0B               	movwf	??_keypad_get_value^0,c
  1918   001814  C00B  FFF6         	movff	??_keypad_get_value,tblptrl
  1919   001818                     	if	1	;There is more than 1 active tblptr byte
  1920   001818  0E10               	movlw	high __smallconst
  1921   00181A  6EF7               	movwf	tblptrh,c
  1922   00181C                     	endif
  1923   00181C                     	if	0	;tblptru may be non-zero
  1924   00181C                     	endif
  1925   00181C                     	if	0	;tblptru may be non-zero
  1926   00181C                     	endif
  1927   00181C  500A               	movf	keypad_get_value@keypad_value^0,w,c
  1928   00181E  6ED9               	movwf	fsr2l,c
  1929   001820  6ADA               	clrf	fsr2h,c
  1930   001822  0008               	tblrd		*
  1931   001824  CFF5 FFDF          	movff	tablat,indf2
  1932   001828                     l3056:
  1933                           
  1934                           ;ECU_Layer/KeyPad/ecu_keypad.c: 79:               }
  1935   001828  2A10               	incf	keypad_get_value@l_coloumns_counter^0,f,c
  1936   00182A  0E03               	movlw	3
  1937   00182C  6410               	cpfsgt	keypad_get_value@l_coloumns_counter^0,c
  1938   00182E  EF1B  F00C         	goto	u2211
  1939   001832  EF1D  F00C         	goto	u2210
  1940   001836                     u2211:
  1941   001836  EFF3  F00B         	goto	l3050
  1942   00183A                     u2210:
  1943   00183A                     
  1944                           ;ECU_Layer/KeyPad/ecu_keypad.c: 80:          }
  1945   00183A  2A0F               	incf	keypad_get_value@l_rows_counter^0,f,c
  1946   00183C  0E03               	movlw	3
  1947   00183E  640F               	cpfsgt	keypad_get_value@l_rows_counter^0,c
  1948   001840  EF24  F00C         	goto	u2221
  1949   001844  EF26  F00C         	goto	u2220
  1950   001848                     u2221:
  1951   001848  EFD1  F00B         	goto	l3028
  1952   00184C                     u2220:
  1953   00184C                     
  1954                           ;ECU_Layer/KeyPad/ecu_keypad.c: 81:           _delay((unsigned long)((150)*(4000000UL/40
      +                          00.0)));
  1955   00184C  0EC3               	movlw	195
  1956   00184E  6E0B               	movwf	??_keypad_get_value^0,c
  1957   001850  0ECD               	movlw	205
  1958   001852                     u2737:
  1959   001852  2EE8               	decfsz	wreg,f,c
  1960   001854  D7FE               	bra	u2737
  1961   001856  2E0B               	decfsz	??_keypad_get_value^0,f,c
  1962   001858  D7FC               	bra	u2737
  1963   00185A  0000               	nop	
  1964   00185C                     l3066:
  1965                           
  1966                           ;ECU_Layer/KeyPad/ecu_keypad.c: 83:     return ret;
  1967   00185C  500C               	movf	keypad_get_value@ret^0,w,c
  1968   00185E  0012               	return		;funcret
  1969   001860                     __end_of_keypad_get_value:
  1970                           	callstack 0
  1971                           
  1972 ;; *************** function _gpio_pin_read_logic *****************
  1973 ;; Defined at:
  1974 ;;		line 111 in file "MCAL_Layer/GPIO/hal_gpio.c"
  1975 ;; Parameters:    Size  Location     Type
  1976 ;;  _pin_config     1    0[COMRAM] PTR const struct .
  1977 ;;		 -> keypad_1$keypad_colomns_pins(4), keypad_1(8), 
  1978 ;;  logic           1    1[COMRAM] PTR enum E2978
  1979 ;;		 -> keypad_get_value@column_logic(1), button_read_state@pin_logic_status(1), 
  1980 ;; Auto vars:     Size  Location     Type
  1981 ;;  ret             1    6[COMRAM] unsigned char 
  1982 ;; Return value:  Size  Location     Type
  1983 ;;                  1    wreg      unsigned char 
  1984 ;; Registers used:
  1985 ;;		wreg, fsr1l, fsr1h, fsr2l, fsr2h, status,2, status,0, prodl, prodh
  1986 ;; Tracked objects:
  1987 ;;		On entry : 0/0
  1988 ;;		On exit  : 0/0
  1989 ;;		Unchanged: 0/0
  1990 ;; Data sizes:     COMRAM   BANK0   BANK1   BANK2   BANK3   BANK4   BANK5   BANK6   BANK7   BANK8   BANK9  BANK10  BANK1
      +1  BANK12  BANK13  BANK14  BANK15
  1991 ;;      Params:         2       0       0       0       0       0       0       0       0       0       0       0       
      +0       0       0       0       0
  1992 ;;      Locals:         1       0       0       0       0       0       0       0       0       0       0       0       
      +0       0       0       0       0
  1993 ;;      Temps:          4       0       0       0       0       0       0       0       0       0       0       0       
      +0       0       0       0       0
  1994 ;;      Totals:         7       0       0       0       0       0       0       0       0       0       0       0       
      +0       0       0       0       0
  1995 ;;Total ram usage:        7 bytes
  1996 ;; Hardware stack levels used: 1
  1997 ;; This function calls:
  1998 ;;		Nothing
  1999 ;; This function is called by:
  2000 ;;		_keypad_get_value
  2001 ;;		_button_read_state
  2002 ;; This function uses a non-reentrant model
  2003 ;;
  2004                           
  2005                           	psect	text6
  2006   001CC0                     __ptext6:
  2007                           	callstack 0
  2008   001CC0                     _gpio_pin_read_logic:
  2009                           	callstack 29
  2010   001CC0                     
  2011                           ;MCAL_Layer/GPIO/hal_gpio.c: 112:     Std_ReturnType ret = (Std_ReturnType)0x01;
  2012   001CC0  0E01               	movlw	1
  2013   001CC2  6E07               	movwf	gpio_pin_read_logic@ret^0,c
  2014                           
  2015                           ;MCAL_Layer/GPIO/hal_gpio.c: 113:     if(((void*)0) == _pin_config || ((void*)0) == logi
      +                          c || _pin_config->pin > 8 - 1)
  2016   001CC4  5001               	movf	gpio_pin_read_logic@_pin_config^0,w,c
  2017   001CC6  B4D8               	btfsc	status,2,c
  2018   001CC8  EF68  F00E         	goto	u1911
  2019   001CCC  EF6A  F00E         	goto	u1910
  2020   001CD0                     u1911:
  2021   001CD0  EF82  F00E         	goto	l2800
  2022   001CD4                     u1910:
  2023   001CD4  5002               	movf	gpio_pin_read_logic@logic^0,w,c
  2024   001CD6  B4D8               	btfsc	status,2,c
  2025   001CD8  EF70  F00E         	goto	u1921
  2026   001CDC  EF72  F00E         	goto	u1920
  2027   001CE0                     u1921:
  2028   001CE0  EF82  F00E         	goto	l2800
  2029   001CE4                     u1920:
  2030   001CE4  5001               	movf	gpio_pin_read_logic@_pin_config^0,w,c
  2031   001CE6  6ED9               	movwf	fsr2l,c
  2032   001CE8  6ADA               	clrf	fsr2h,c
  2033   001CEA  30DF               	rrcf	223,w,c
  2034   001CEC  32E8               	rrcf	wreg,f,c
  2035   001CEE  32E8               	rrcf	wreg,f,c
  2036   001CF0  0B07               	andlw	7
  2037   001CF2  6E03               	movwf	??_gpio_pin_read_logic^0,c
  2038   001CF4  0E07               	movlw	7
  2039   001CF6  6403               	cpfsgt	??_gpio_pin_read_logic^0,c
  2040   001CF8  EF80  F00E         	goto	u1931
  2041   001CFC  EF82  F00E         	goto	u1930
  2042   001D00                     u1931:
  2043   001D00  EF86  F00E         	goto	l2802
  2044   001D04                     u1930:
  2045   001D04                     l2800:
  2046                           
  2047                           ;MCAL_Layer/GPIO/hal_gpio.c: 114:     {;MCAL_Layer/GPIO/hal_gpio.c: 115:         ret = (
      +                          Std_ReturnType)0x00 ;
  2048   001D04  0E00               	movlw	0
  2049   001D06  6E07               	movwf	gpio_pin_read_logic@ret^0,c
  2050                           
  2051                           ;MCAL_Layer/GPIO/hal_gpio.c: 116:     }
  2052   001D08  EFB0  F00E         	goto	l2804
  2053   001D0C                     l2802:
  2054                           
  2055                           ;MCAL_Layer/GPIO/hal_gpio.c: 118:     {;MCAL_Layer/GPIO/hal_gpio.c: 119:          *logic
      +                           = ((*port_registers[_pin_config->port] >> _pin_config->pin) & (uint8) 1);
  2056   001D0C  5002               	movf	gpio_pin_read_logic@logic^0,w,c
  2057   001D0E  6ED9               	movwf	fsr2l,c
  2058   001D10  6ADA               	clrf	fsr2h,c
  2059   001D12  5001               	movf	gpio_pin_read_logic@_pin_config^0,w,c
  2060   001D14  6EE1               	movwf	fsr1l,c
  2061   001D16  6AE2               	clrf	fsr1h,c
  2062   001D18  30E7               	rrcf	231,w,c
  2063   001D1A  32E8               	rrcf	wreg,f,c
  2064   001D1C  32E8               	rrcf	wreg,f,c
  2065   001D1E  0B07               	andlw	7
  2066   001D20  6E03               	movwf	??_gpio_pin_read_logic^0,c
  2067   001D22  5001               	movf	gpio_pin_read_logic@_pin_config^0,w,c
  2068   001D24  6EE1               	movwf	fsr1l,c
  2069   001D26  6AE2               	clrf	fsr1h,c
  2070   001D28  50E7               	movf	231,w,c
  2071   001D2A  0B07               	andlw	7
  2072   001D2C  0D02               	mullw	2
  2073   001D2E  50F3               	movf	243,w,c
  2074   001D30  0FA0               	addlw	low _port_registers
  2075   001D32  6EE1               	movwf	fsr1l,c
  2076   001D34  6AE2               	clrf	fsr1h,c
  2077   001D36  CFE6 F004          	movff	postinc1,??_gpio_pin_read_logic+1
  2078   001D3A  CFE5 F005          	movff	postdec1,??_gpio_pin_read_logic+2
  2079   001D3E  C004  FFE1         	movff	??_gpio_pin_read_logic+1,fsr1l
  2080   001D42  C005  FFE2         	movff	??_gpio_pin_read_logic+2,fsr1h
  2081   001D46  50E7               	movf	indf1,w,c
  2082   001D48  6E06               	movwf	(??_gpio_pin_read_logic+3)^0,c
  2083   001D4A  2A03               	incf	??_gpio_pin_read_logic^0,f,c
  2084   001D4C  EFAA  F00E         	goto	u1944
  2085   001D50                     u1945:
  2086   001D50  90D8               	bcf	status,0,c
  2087   001D52  3206               	rrcf	(??_gpio_pin_read_logic+3)^0,f,c
  2088   001D54                     u1944:
  2089   001D54  2E03               	decfsz	??_gpio_pin_read_logic^0,f,c
  2090   001D56  EFA8  F00E         	goto	u1945
  2091   001D5A  5006               	movf	(??_gpio_pin_read_logic+3)^0,w,c
  2092   001D5C  0B01               	andlw	1
  2093   001D5E  6EDF               	movwf	indf2,c
  2094   001D60                     l2804:
  2095                           
  2096                           ;MCAL_Layer/GPIO/hal_gpio.c: 121:     return ret ;
  2097   001D60  5007               	movf	gpio_pin_read_logic@ret^0,w,c
  2098   001D62  0012               	return		;funcret
  2099   001D64                     __end_of_gpio_pin_read_logic:
  2100                           	callstack 0
  2101                           
  2102 ;; *************** function _convert_uint16_to_string *****************
  2103 ;; Defined at:
  2104 ;;		line 299 in file "ECU_Layer/Chr_LCD/ecu_chr_lcd.c"
  2105 ;; Parameters:    Size  Location     Type
  2106 ;;  value           2   42[COMRAM] unsigned short 
  2107 ;;  str             1   44[COMRAM] PTR unsigned char 
  2108 ;;		 -> main@result(12), 
  2109 ;; Auto vars:     Size  Location     Type
  2110 ;;  ret             1   45[COMRAM] unsigned char 
  2111 ;; Return value:  Size  Location     Type
  2112 ;;                  1    wreg      unsigned char 
  2113 ;; Registers used:
  2114 ;;		wreg, fsr1l, fsr1h, fsr2l, fsr2h, status,2, status,0, tblptrl, tblptrh, tblptru, cstack
  2115 ;; Tracked objects:
  2116 ;;		On entry : 0/0
  2117 ;;		On exit  : 0/0
  2118 ;;		Unchanged: 0/0
  2119 ;; Data sizes:     COMRAM   BANK0   BANK1   BANK2   BANK3   BANK4   BANK5   BANK6   BANK7   BANK8   BANK9  BANK10  BANK1
      +1  BANK12  BANK13  BANK14  BANK15
  2120 ;;      Params:         3       0       0       0       0       0       0       0       0       0       0       0       
      +0       0       0       0       0
  2121 ;;      Locals:         1       0       0       0       0       0       0       0       0       0       0       0       
      +0       0       0       0       0
  2122 ;;      Temps:          0       0       0       0       0       0       0       0       0       0       0       0       
      +0       0       0       0       0
  2123 ;;      Totals:         4       0       0       0       0       0       0       0       0       0       0       0       
      +0       0       0       0       0
  2124 ;;Total ram usage:        4 bytes
  2125 ;; Hardware stack levels used: 1
  2126 ;; Hardware stack levels required when called: 5
  2127 ;; This function calls:
  2128 ;;		_memset
  2129 ;;		_sprintf
  2130 ;; This function is called by:
  2131 ;;		_main
  2132 ;; This function uses a non-reentrant model
  2133 ;;
  2134                           
  2135                           	psect	text7
  2136   002088                     __ptext7:
  2137                           	callstack 0
  2138   002088                     _convert_uint16_to_string:
  2139                           	callstack 25
  2140   002088                     
  2141                           ;ECU_Layer/Chr_LCD/ecu_chr_lcd.c: 300:     Std_ReturnType ret = (Std_ReturnType)0x01;
  2142   002088  0E01               	movlw	1
  2143   00208A  6E2E               	movwf	convert_uint16_to_string@ret^0,c
  2144                           
  2145                           ;ECU_Layer/Chr_LCD/ecu_chr_lcd.c: 301:      if(((void*)0) == str)
  2146   00208C  502D               	movf	convert_uint16_to_string@str^0,w,c
  2147   00208E  A4D8               	btfss	status,2,c
  2148   002090  EF4C  F010         	goto	u2141
  2149   002094  EF4E  F010         	goto	u2140
  2150   002098                     u2141:
  2151   002098  EF52  F010         	goto	l2992
  2152   00209C                     u2140:
  2153   00209C                     
  2154                           ;ECU_Layer/Chr_LCD/ecu_chr_lcd.c: 302:      {;ECU_Layer/Chr_LCD/ecu_chr_lcd.c: 303:     
      +                              ret = (Std_ReturnType)0x00 ;
  2155   00209C  0E00               	movlw	0
  2156   00209E  6E2E               	movwf	convert_uint16_to_string@ret^0,c
  2157                           
  2158                           ;ECU_Layer/Chr_LCD/ecu_chr_lcd.c: 304:      }
  2159   0020A0  EF68  F010         	goto	l2996
  2160   0020A4                     l2992:
  2161                           
  2162                           ;ECU_Layer/Chr_LCD/ecu_chr_lcd.c: 306:      {;ECU_Layer/Chr_LCD/ecu_chr_lcd.c: 307:     
      +                               memset(str, '\0', 6);
  2163   0020A4  C02D  F001         	movff	convert_uint16_to_string@str,memset@dest
  2164   0020A8  0E00               	movlw	0
  2165   0020AA  6E03               	movwf	(memset@c+1)^0,c
  2166   0020AC  0E00               	movlw	0
  2167   0020AE  6E02               	movwf	memset@c^0,c
  2168   0020B0  0E00               	movlw	0
  2169   0020B2  6E05               	movwf	(memset@n+1)^0,c
  2170   0020B4  0E06               	movlw	6
  2171   0020B6  6E04               	movwf	memset@n^0,c
  2172   0020B8  ECFA  F010         	call	_memset	;wreg free
  2173   0020BC                     
  2174                           ;ECU_Layer/Chr_LCD/ecu_chr_lcd.c: 308:          sprintf(str, "%i", value);
  2175   0020BC  C02D  F01A         	movff	convert_uint16_to_string@str,sprintf@s
  2176   0020C0  0E3E               	movlw	low STR_1
  2177   0020C2  6E1B               	movwf	sprintf@fmt^0,c
  2178   0020C4  C02B  F01C         	movff	convert_uint16_to_string@value,?_sprintf+2
  2179   0020C8  C02C  F01D         	movff	convert_uint16_to_string@value+1,?_sprintf+3
  2180   0020CC  ECC6  F010         	call	_sprintf	;wreg free
  2181   0020D0                     l2996:
  2182                           
  2183                           ;ECU_Layer/Chr_LCD/ecu_chr_lcd.c: 310:     return ret;
  2184   0020D0  502E               	movf	convert_uint16_to_string@ret^0,w,c
  2185   0020D2  0012               	return		;funcret
  2186   0020D4                     __end_of_convert_uint16_to_string:
  2187                           	callstack 0
  2188                           
  2189 ;; *************** function _sprintf *****************
  2190 ;; Defined at:
  2191 ;;		line 9 in file "C:\Program Files\Microchip\xc8\v2.45\pic\sources\c99\common\nf_sprintf.c"
  2192 ;; Parameters:    Size  Location     Type
  2193 ;;  s               1   25[COMRAM] PTR unsigned char 
  2194 ;;		 -> main@result(12), 
  2195 ;;  fmt             1   26[COMRAM] PTR const unsigned char 
  2196 ;;		 -> STR_3(3), STR_2(3), STR_1(3), 
  2197 ;; Auto vars:     Size  Location     Type
  2198 ;;  f              12   30[COMRAM] struct _IO_FILE
  2199 ;;  ret             2    0        int 
  2200 ;;  ap              1   29[COMRAM] PTR void [1]
  2201 ;;		 -> ?_sprintf(2), 
  2202 ;; Return value:  Size  Location     Type
  2203 ;;                  2   25[COMRAM] int 
  2204 ;; Registers used:
  2205 ;;		wreg, fsr1l, fsr1h, fsr2l, fsr2h, status,2, status,0, tblptrl, tblptrh, tblptru, cstack
  2206 ;; Tracked objects:
  2207 ;;		On entry : 0/0
  2208 ;;		On exit  : 0/0
  2209 ;;		Unchanged: 0/0
  2210 ;; Data sizes:     COMRAM   BANK0   BANK1   BANK2   BANK3   BANK4   BANK5   BANK6   BANK7   BANK8   BANK9  BANK10  BANK1
      +1  BANK12  BANK13  BANK14  BANK15
  2211 ;;      Params:         4       0       0       0       0       0       0       0       0       0       0       0       
      +0       0       0       0       0
  2212 ;;      Locals:        13       0       0       0       0       0       0       0       0       0       0       0       
      +0       0       0       0       0
  2213 ;;      Temps:          0       0       0       0       0       0       0       0       0       0       0       0       
      +0       0       0       0       0
  2214 ;;      Totals:        17       0       0       0       0       0       0       0       0       0       0       0       
      +0       0       0       0       0
  2215 ;;Total ram usage:       17 bytes
  2216 ;; Hardware stack levels used: 1
  2217 ;; Hardware stack levels required when called: 4
  2218 ;; This function calls:
  2219 ;;		_vfprintf
  2220 ;; This function is called by:
  2221 ;;		_convert_uint16_to_string
  2222 ;;		_convert_uint8_to_string
  2223 ;;		_convert_uint32_to_string
  2224 ;; This function uses a non-reentrant model
  2225 ;;
  2226                           
  2227                           	psect	text8
  2228   00218C                     __ptext8:
  2229                           	callstack 0
  2230   00218C                     _sprintf:
  2231                           	callstack 25
  2232   00218C  0E1C               	movlw	low (?_sprintf+2)
  2233   00218E  6E1E               	movwf	sprintf@ap^0,c
  2234   002190  C01A  F01F         	movff	sprintf@s,sprintf@f
  2235   002194  0E00               	movlw	0
  2236   002196  6E23               	movwf	(sprintf@f+4)^0,c
  2237   002198  0E00               	movlw	0
  2238   00219A  6E22               	movwf	(sprintf@f+3)^0,c
  2239   00219C  0E00               	movlw	0
  2240   00219E  6E2A               	movwf	(sprintf@f+11)^0,c
  2241   0021A0  0E00               	movlw	0
  2242   0021A2  6E29               	movwf	(sprintf@f+10)^0,c
  2243   0021A4  0E1F               	movlw	low sprintf@f
  2244   0021A6  6E16               	movwf	vfprintf@fp^0,c
  2245   0021A8  C01B  F017         	movff	sprintf@fmt,vfprintf@fmt
  2246   0021AC  0E1E               	movlw	low sprintf@ap
  2247   0021AE  6E18               	movwf	vfprintf@ap^0,c
  2248   0021B0  EC6A  F010         	call	_vfprintf	;wreg free
  2249   0021B4  501A               	movf	sprintf@s^0,w,c
  2250   0021B6  2422               	addwf	(sprintf@f+3)^0,w,c
  2251   0021B8  6ED9               	movwf	fsr2l,c
  2252   0021BA  6ADA               	clrf	fsr2h,c
  2253   0021BC  6ADF               	clrf	indf2,c
  2254   0021BE  0012               	return		;funcret
  2255   0021C0                     __end_of_sprintf:
  2256                           	callstack 0
  2257                           
  2258 ;; *************** function _vfprintf *****************
  2259 ;; Defined at:
  2260 ;;		line 1817 in file "C:\Program Files\Microchip\xc8\v2.45\pic\sources\c99\common\doprnt.c"
  2261 ;; Parameters:    Size  Location     Type
  2262 ;;  fp              1   21[COMRAM] PTR struct _IO_FILE
  2263 ;;		 -> sprintf@f(12), 
  2264 ;;  fmt             1   22[COMRAM] PTR const unsigned char 
  2265 ;;		 -> STR_3(3), STR_2(3), STR_1(3), 
  2266 ;;  ap              1   23[COMRAM] PTR PTR void 
  2267 ;;		 -> sprintf@ap(1), 
  2268 ;; Auto vars:     Size  Location     Type
  2269 ;;  cfmt            1   24[COMRAM] PTR unsigned char 
  2270 ;;		 -> STR_3(3), STR_2(3), STR_1(3), 
  2271 ;; Return value:  Size  Location     Type
  2272 ;;                  2   21[COMRAM] int 
  2273 ;; Registers used:
  2274 ;;		wreg, fsr1l, fsr1h, fsr2l, fsr2h, status,2, status,0, tblptrl, tblptrh, tblptru, cstack
  2275 ;; Tracked objects:
  2276 ;;		On entry : 0/0
  2277 ;;		On exit  : 0/0
  2278 ;;		Unchanged: 0/0
  2279 ;; Data sizes:     COMRAM   BANK0   BANK1   BANK2   BANK3   BANK4   BANK5   BANK6   BANK7   BANK8   BANK9  BANK10  BANK1
      +1  BANK12  BANK13  BANK14  BANK15
  2280 ;;      Params:         3       0       0       0       0       0       0       0       0       0       0       0       
      +0       0       0       0       0
  2281 ;;      Locals:         1       0       0       0       0       0       0       0       0       0       0       0       
      +0       0       0       0       0
  2282 ;;      Temps:          0       0       0       0       0       0       0       0       0       0       0       0       
      +0       0       0       0       0
  2283 ;;      Totals:         4       0       0       0       0       0       0       0       0       0       0       0       
      +0       0       0       0       0
  2284 ;;Total ram usage:        4 bytes
  2285 ;; Hardware stack levels used: 1
  2286 ;; Hardware stack levels required when called: 3
  2287 ;; This function calls:
  2288 ;;		_vfpfcnvrt
  2289 ;; This function is called by:
  2290 ;;		_sprintf
  2291 ;; This function uses a non-reentrant model
  2292 ;;
  2293                           
  2294                           	psect	text9
  2295   0020D4                     __ptext9:
  2296                           	callstack 0
  2297   0020D4                     _vfprintf:
  2298                           	callstack 25
  2299   0020D4                     
  2300                           ;C:\Program Files\Microchip\xc8\v2.45\pic\sources\c99\common\doprnt.c: 1817: int vfprint
      +                          f(FILE *fp, const char *fmt, va_list ap);C:\Program Files\Microchip\xc8\v2.45\pic\source
      +                          s\c99\common\doprnt.c: 1818: {;C:\Program Files\Microchip\xc8\v2.45\pic\sources\c99\comm
      +                          on\doprnt.c: 1820:     char *cfmt;;C:\Program Files\Microchip\xc8\v2.45\pic\sources\c99\
      +                          common\doprnt.c: 1822:     cfmt = (char *)fmt;
  2301   0020D4  C017  F019         	movff	vfprintf@fmt,vfprintf@cfmt
  2302                           
  2303                           ;C:\Program Files\Microchip\xc8\v2.45\pic\sources\c99\common\doprnt.c: 1826:     while (
      +                          *cfmt) {
  2304   0020D8  EF76  F010         	goto	l2788
  2305   0020DC                     l2786:
  2306                           
  2307                           ;C:\Program Files\Microchip\xc8\v2.45\pic\sources\c99\common\doprnt.c: 1830:    vfpfcnvr
      +                          t(fp, &cfmt, ap);
  2308   0020DC  C016  F00B         	movff	vfprintf@fp,vfpfcnvrt@fp
  2309   0020E0  0E19               	movlw	low vfprintf@cfmt
  2310   0020E2  6E0C               	movwf	vfpfcnvrt@fmt^0,c
  2311   0020E4  C018  F00D         	movff	vfprintf@ap,vfpfcnvrt@ap
  2312   0020E8  ECBA  F009         	call	_vfpfcnvrt	;wreg free
  2313   0020EC                     l2788:
  2314                           
  2315                           ;C:\Program Files\Microchip\xc8\v2.45\pic\sources\c99\common\doprnt.c: 1826:     while (
      +                          *cfmt) {
  2316   0020EC  C019  FFF6         	movff	vfprintf@cfmt,tblptrl
  2317   0020F0                     	if	1	;There is more than 1 active tblptr byte
  2318   0020F0  0E10               	movlw	high __smallconst
  2319   0020F2  6EF7               	movwf	tblptrh,c
  2320   0020F4                     	endif
  2321   0020F4                     	if	0	;tblptru may be non-zero
  2322   0020F4                     	endif
  2323   0020F4                     	if	0	;tblptru may be non-zero
  2324   0020F4                     	endif
  2325   0020F4  0008               	tblrd		*
  2326   0020F6  50F5               	movf	tablat,w,c
  2327   0020F8  0900               	iorlw	0
  2328   0020FA  A4D8               	btfss	status,2,c
  2329   0020FC  EF82  F010         	goto	u1901
  2330   002100  EF84  F010         	goto	u1900
  2331   002104                     u1901:
  2332   002104  EF6E  F010         	goto	l2786
  2333   002108                     u1900:
  2334   002108                     
  2335                           ;C:\Program Files\Microchip\xc8\v2.45\pic\sources\c99\common\doprnt.c: 1835:  return 0;
  2336   002108  0E00               	movlw	0
  2337   00210A  6E17               	movwf	(?_vfprintf+1)^0,c
  2338   00210C  0E00               	movlw	0
  2339   00210E  6E16               	movwf	?_vfprintf^0,c
  2340   002110  0012               	return		;funcret
  2341   002112                     __end_of_vfprintf:
  2342                           	callstack 0
  2343                           
  2344 ;; *************** function _vfpfcnvrt *****************
  2345 ;; Defined at:
  2346 ;;		line 1177 in file "C:\Program Files\Microchip\xc8\v2.45\pic\sources\c99\common\doprnt.c"
  2347 ;; Parameters:    Size  Location     Type
  2348 ;;  fp              1   10[COMRAM] PTR struct _IO_FILE
  2349 ;;		 -> sprintf@f(12), 
  2350 ;;  fmt             1   11[COMRAM] PTR PTR unsigned char 
  2351 ;;		 -> vfprintf@cfmt(1), 
  2352 ;;  ap              1   12[COMRAM] PTR PTR void 
  2353 ;;		 -> sprintf@ap(1), 
  2354 ;; Auto vars:     Size  Location     Type
  2355 ;;  convarg         4   16[COMRAM] struct .
  2356 ;;  c               1   20[COMRAM] unsigned char 
  2357 ;;  cp              1   15[COMRAM] PTR unsigned char 
  2358 ;;		 -> STR_3(3), STR_2(3), STR_1(3), 
  2359 ;;  done            1   14[COMRAM] _Bool 
  2360 ;; Return value:  Size  Location     Type
  2361 ;;                  1    wreg      void 
  2362 ;; Registers used:
  2363 ;;		wreg, fsr1l, fsr1h, fsr2l, fsr2h, status,2, status,0, tblptrl, tblptrh, tblptru, cstack
  2364 ;; Tracked objects:
  2365 ;;		On entry : 0/0
  2366 ;;		On exit  : 0/0
  2367 ;;		Unchanged: 0/0
  2368 ;; Data sizes:     COMRAM   BANK0   BANK1   BANK2   BANK3   BANK4   BANK5   BANK6   BANK7   BANK8   BANK9  BANK10  BANK1
      +1  BANK12  BANK13  BANK14  BANK15
  2369 ;;      Params:         3       0       0       0       0       0       0       0       0       0       0       0       
      +0       0       0       0       0
  2370 ;;      Locals:         7       0       0       0       0       0       0       0       0       0       0       0       
      +0       0       0       0       0
  2371 ;;      Temps:          1       0       0       0       0       0       0       0       0       0       0       0       
      +0       0       0       0       0
  2372 ;;      Totals:        11       0       0       0       0       0       0       0       0       0       0       0       
      +0       0       0       0       0
  2373 ;;Total ram usage:       11 bytes
  2374 ;; Hardware stack levels used: 1
  2375 ;; Hardware stack levels required when called: 2
  2376 ;; This function calls:
  2377 ;;		___awdiv
  2378 ;;		___awmod
  2379 ;;		_abs
  2380 ;;		_fputc
  2381 ;; This function is called by:
  2382 ;;		_vfprintf
  2383 ;; This function uses a non-reentrant model
  2384 ;;
  2385                           
  2386                           	psect	text10
  2387   001374                     __ptext10:
  2388                           	callstack 0
  2389   001374                     _vfpfcnvrt:
  2390                           	callstack 25
  2391   001374                     
  2392                           ;C:\Program Files\Microchip\xc8\v2.45\pic\sources\c99\common\doprnt.c: 1177: vfpfcnvrt(F
      +                          ILE *fp, char *fmt[], va_list ap);C:\Program Files\Microchip\xc8\v2.45\pic\sources\c99\c
      +                          ommon\doprnt.c: 1178: {;C:\Program Files\Microchip\xc8\v2.45\pic\sources\c99\common\dopr
      +                          nt.c: 1179:     char c, *cp;;C:\Program Files\Microchip\xc8\v2.45\pic\sources\c99\common
      +                          \doprnt.c: 1180:     _Bool done;;C:\Program Files\Microchip\xc8\v2.45\pic\sources\c99\co
      +                          mmon\doprnt.c: 1188:  } convarg;;C:\Program Files\Microchip\xc8\v2.45\pic\sources\c99\co
      +                          mmon\doprnt.c: 1201:     if ((*fmt)[0] == '%') {
  2393   001374  500C               	movf	vfpfcnvrt@fmt^0,w,c
  2394   001376  6ED9               	movwf	fsr2l,c
  2395   001378  6ADA               	clrf	fsr2h,c
  2396   00137A  CFDF FFF6          	movff	indf2,tblptrl
  2397   00137E                     	if	1	;There is more than 1 active tblptr byte
  2398   00137E  0E10               	movlw	high __smallconst
  2399   001380  6EF7               	movwf	tblptrh,c
  2400   001382                     	endif
  2401   001382                     	if	0	;tblptru may be non-zero
  2402   001382                     	endif
  2403   001382                     	if	0	;tblptru may be non-zero
  2404   001382                     	endif
  2405   001382  0008               	tblrd		*
  2406   001384  50F5               	movf	tablat,w,c
  2407   001386  0A25               	xorlw	37
  2408   001388  A4D8               	btfss	status,2,c
  2409   00138A  EFC9  F009         	goto	u1751
  2410   00138E  EFCB  F009         	goto	u1750
  2411   001392                     u1751:
  2412   001392  EF84  F00A         	goto	l2702
  2413   001396                     u1750:
  2414   001396                     
  2415                           ;C:\Program Files\Microchip\xc8\v2.45\pic\sources\c99\common\doprnt.c: 1202:         ++*
      +                          fmt;
  2416   001396  500C               	movf	vfpfcnvrt@fmt^0,w,c
  2417   001398  6ED9               	movwf	fsr2l,c
  2418   00139A  6ADA               	clrf	fsr2h,c
  2419   00139C  2ADF               	incf	indf2,f,c
  2420   00139E                     
  2421                           ;C:\Program Files\Microchip\xc8\v2.45\pic\sources\c99\common\doprnt.c: 1204:         fla
      +                          gs = width = 0;
  2422   00139E  0E00               	movlw	0
  2423   0013A0  6E75               	movwf	(_width+1)^0,c
  2424   0013A2  0E00               	movlw	0
  2425   0013A4  6E74               	movwf	_width^0,c
  2426   0013A6  C074  F078         	movff	_width,_flags
  2427   0013AA                     
  2428                           ;C:\Program Files\Microchip\xc8\v2.45\pic\sources\c99\common\doprnt.c: 1205:         pre
      +                          c = -1;
  2429   0013AA  6876               	setf	_prec^0,c
  2430   0013AC  6877               	setf	(_prec+1)^0,c
  2431   0013AE                     
  2432                           ;C:\Program Files\Microchip\xc8\v2.45\pic\sources\c99\common\doprnt.c: 1291:   cp = *fmt
      +                          ;
  2433   0013AE  500C               	movf	vfpfcnvrt@fmt^0,w,c
  2434   0013B0  6ED9               	movwf	fsr2l,c
  2435   0013B2  6ADA               	clrf	fsr2h,c
  2436   0013B4  50DF               	movf	indf2,w,c
  2437   0013B6  6E10               	movwf	vfpfcnvrt@cp^0,c
  2438   0013B8                     
  2439                           ;C:\Program Files\Microchip\xc8\v2.45\pic\sources\c99\common\doprnt.c: 1361:   if (*cp =
      +                          = 'd' || *cp == 'i') {
  2440   0013B8  C010  FFF6         	movff	vfpfcnvrt@cp,tblptrl
  2441   0013BC                     	if	1	;There is more than 1 active tblptr byte
  2442   0013BC  0E10               	movlw	high __smallconst
  2443   0013BE  6EF7               	movwf	tblptrh,c
  2444   0013C0                     	endif
  2445   0013C0                     	if	0	;tblptru may be non-zero
  2446   0013C0                     	endif
  2447   0013C0                     	if	0	;tblptru may be non-zero
  2448   0013C0                     	endif
  2449   0013C0  0008               	tblrd		*
  2450   0013C2  50F5               	movf	tablat,w,c
  2451   0013C4  0A64               	xorlw	100
  2452   0013C6  B4D8               	btfsc	status,2,c
  2453   0013C8  EFE8  F009         	goto	u1761
  2454   0013CC  EFEA  F009         	goto	u1760
  2455   0013D0                     u1761:
  2456   0013D0  EFF8  F009         	goto	l2672
  2457   0013D4                     u1760:
  2458   0013D4  C010  FFF6         	movff	vfpfcnvrt@cp,tblptrl
  2459   0013D8                     	if	1	;There is more than 1 active tblptr byte
  2460   0013D8  0E10               	movlw	high __smallconst
  2461   0013DA  6EF7               	movwf	tblptrh,c
  2462   0013DC                     	endif
  2463   0013DC                     	if	0	;tblptru may be non-zero
  2464   0013DC                     	endif
  2465   0013DC                     	if	0	;tblptru may be non-zero
  2466   0013DC                     	endif
  2467   0013DC  0008               	tblrd		*
  2468   0013DE  50F5               	movf	tablat,w,c
  2469   0013E0  0A69               	xorlw	105
  2470   0013E2  A4D8               	btfss	status,2,c
  2471   0013E4  EFF6  F009         	goto	u1771
  2472   0013E8  EFF8  F009         	goto	u1770
  2473   0013EC                     u1771:
  2474   0013EC  EF7E  F00A         	goto	l2698
  2475   0013F0                     u1770:
  2476   0013F0                     l2672:
  2477                           
  2478                           ;C:\Program Files\Microchip\xc8\v2.45\pic\sources\c99\common\doprnt.c: 1404:    convarg.
      +                          sint = (vfpf_sint_t)(int)(*(int *)__va_arg(*(int **)ap, (int)0));
  2479   0013F0  500D               	movf	vfpfcnvrt@ap^0,w,c
  2480   0013F2  6ED9               	movwf	fsr2l,c
  2481   0013F4  6ADA               	clrf	fsr2h,c
  2482   0013F6  0E02               	movlw	2
  2483   0013F8  26DF               	addwf	indf2,f,c
  2484   0013FA  5CDF               	subwf	indf2,w,c
  2485   0013FC  6ED9               	movwf	fsr2l,c
  2486   0013FE  6ADA               	clrf	fsr2h,c
  2487   001400  CFDE F011          	movff	postinc2,vfpfcnvrt@convarg
  2488   001404  CFDE F012          	movff	postinc2,vfpfcnvrt@convarg+1
  2489   001408                     
  2490                           ;C:\Program Files\Microchip\xc8\v2.45\pic\sources\c99\common\doprnt.c: 1406:    *fmt = c
      +                          p+1;
  2491   001408  500C               	movf	vfpfcnvrt@fmt^0,w,c
  2492   00140A  6ED9               	movwf	fsr2l,c
  2493   00140C  6ADA               	clrf	fsr2h,c
  2494   00140E  2810               	incf	vfpfcnvrt@cp^0,w,c
  2495   001410  6EDF               	movwf	indf2,c
  2496   001412                     
  2497                           ;C:\Program Files\Microchip\xc8\v2.45\pic\sources\c99\common\doprnt.c: 1408:    c = size
      +                          of(dbuf);
  2498   001412  0E20               	movlw	32
  2499   001414  6E15               	movwf	vfpfcnvrt@c^0,c
  2500                           
  2501                           ;C:\Program Files\Microchip\xc8\v2.45\pic\sources\c99\common\doprnt.c: 1409:    done = c
      +                          onvarg.sint < 0;
  2502   001416  BE12               	btfsc	(vfpfcnvrt@convarg+1)^0,7,c
  2503   001418  EF10  F00A         	goto	u1781
  2504   00141C  EF13  F00A         	goto	u1780
  2505   001420                     u1781:
  2506   001420  0E01               	movlw	1
  2507   001422  EF14  F00A         	goto	u1790
  2508   001426                     u1780:
  2509   001426  0E00               	movlw	0
  2510   001428                     u1790:
  2511   001428  6E0F               	movwf	vfpfcnvrt@done^0,c
  2512   00142A                     l2678:
  2513                           
  2514                           ;C:\Program Files\Microchip\xc8\v2.45\pic\sources\c99\common\doprnt.c: 1411:     dbuf[--
      +                          c] = abs(convarg.sint % 10) + '0';
  2515   00142A  0615               	decf	vfpfcnvrt@c^0,f,c
  2516   00142C  5015               	movf	vfpfcnvrt@c^0,w,c
  2517   00142E  0F80               	addlw	low _dbuf
  2518   001430  6ED9               	movwf	fsr2l,c
  2519   001432  6ADA               	clrf	fsr2h,c
  2520   001434  C011  F001         	movff	vfpfcnvrt@convarg,___awmod@dividend
  2521   001438  C012  F002         	movff	vfpfcnvrt@convarg+1,___awmod@dividend+1
  2522   00143C  0E00               	movlw	0
  2523   00143E  6E04               	movwf	(___awmod@divisor+1)^0,c
  2524   001440  0E0A               	movlw	10
  2525   001442  6E03               	movwf	___awmod@divisor^0,c
  2526   001444  EC5F  F00D         	call	___awmod	;wreg free
  2527   001448  C001  F007         	movff	?___awmod,abs@a
  2528   00144C  C002  F008         	movff	?___awmod+1,abs@a+1
  2529   001450  ECE0  F010         	call	_abs	;wreg free
  2530   001454  5007               	movf	?_abs^0,w,c
  2531   001456  0F30               	addlw	48
  2532   001458  6EDF               	movwf	indf2,c
  2533   00145A                     
  2534                           ;C:\Program Files\Microchip\xc8\v2.45\pic\sources\c99\common\doprnt.c: 1412:     convarg
      +                          .sint /= 10;
  2535   00145A  C011  F001         	movff	vfpfcnvrt@convarg,___awdiv@dividend
  2536   00145E  C012  F002         	movff	vfpfcnvrt@convarg+1,___awdiv@dividend+1
  2537   001462  0E00               	movlw	0
  2538   001464  6E04               	movwf	(___awdiv@divisor+1)^0,c
  2539   001466  0E0A               	movlw	10
  2540   001468  6E03               	movwf	___awdiv@divisor^0,c
  2541   00146A  ECA5  F00C         	call	___awdiv	;wreg free
  2542   00146E  C001  F011         	movff	?___awdiv,vfpfcnvrt@convarg
  2543   001472  C002  F012         	movff	?___awdiv+1,vfpfcnvrt@convarg+1
  2544   001476                     
  2545                           ;C:\Program Files\Microchip\xc8\v2.45\pic\sources\c99\common\doprnt.c: 1416:    } while 
      +                          (convarg.sint != 0 && c != 0);
  2546   001476  5011               	movf	vfpfcnvrt@convarg^0,w,c
  2547   001478  1012               	iorwf	(vfpfcnvrt@convarg+1)^0,w,c
  2548   00147A  B4D8               	btfsc	status,2,c
  2549   00147C  EF42  F00A         	goto	u1801
  2550   001480  EF44  F00A         	goto	u1800
  2551   001484                     u1801:
  2552   001484  EF4C  F00A         	goto	l2686
  2553   001488                     u1800:
  2554   001488  5015               	movf	vfpfcnvrt@c^0,w,c
  2555   00148A  A4D8               	btfss	status,2,c
  2556   00148C  EF4A  F00A         	goto	u1811
  2557   001490  EF4C  F00A         	goto	u1810
  2558   001494                     u1811:
  2559   001494  EF15  F00A         	goto	l2678
  2560   001498                     u1810:
  2561   001498                     l2686:
  2562                           
  2563                           ;C:\Program Files\Microchip\xc8\v2.45\pic\sources\c99\common\doprnt.c: 1417:    if (c !=
      +                           0 && done) {
  2564   001498  5015               	movf	vfpfcnvrt@c^0,w,c
  2565   00149A  B4D8               	btfsc	status,2,c
  2566   00149C  EF52  F00A         	goto	u1821
  2567   0014A0  EF54  F00A         	goto	u1820
  2568   0014A4                     u1821:
  2569   0014A4  EF73  F00A         	goto	l2696
  2570   0014A8                     u1820:
  2571   0014A8  500F               	movf	vfpfcnvrt@done^0,w,c
  2572   0014AA  B4D8               	btfsc	status,2,c
  2573   0014AC  EF5A  F00A         	goto	u1831
  2574   0014B0  EF5C  F00A         	goto	u1830
  2575   0014B4                     u1831:
  2576   0014B4  EF73  F00A         	goto	l2696
  2577   0014B8                     u1830:
  2578   0014B8                     
  2579                           ;C:\Program Files\Microchip\xc8\v2.45\pic\sources\c99\common\doprnt.c: 1418:     dbuf[--
      +                          c] = '-';
  2580   0014B8  0615               	decf	vfpfcnvrt@c^0,f,c
  2581   0014BA  5015               	movf	vfpfcnvrt@c^0,w,c
  2582   0014BC  0F80               	addlw	low _dbuf
  2583   0014BE  6ED9               	movwf	fsr2l,c
  2584   0014C0  6ADA               	clrf	fsr2h,c
  2585   0014C2  0E2D               	movlw	45
  2586   0014C4  6EDF               	movwf	indf2,c
  2587   0014C6  EF73  F00A         	goto	l2696
  2588   0014CA                     l2692:
  2589                           
  2590                           ;C:\Program Files\Microchip\xc8\v2.45\pic\sources\c99\common\doprnt.c: 1424:     fputc(d
      +                          buf[c++], fp);
  2591   0014CA  5015               	movf	vfpfcnvrt@c^0,w,c
  2592   0014CC  0F80               	addlw	low _dbuf
  2593   0014CE  6ED9               	movwf	fsr2l,c
  2594   0014D0  6ADA               	clrf	fsr2h,c
  2595   0014D2  50DF               	movf	indf2,w,c
  2596   0014D4  6E0E               	movwf	??_vfpfcnvrt^0,c
  2597   0014D6  500E               	movf	??_vfpfcnvrt^0,w,c
  2598   0014D8  6E01               	movwf	fputc@c^0,c
  2599   0014DA  6A02               	clrf	(fputc@c+1)^0,c
  2600   0014DC  C00B  F003         	movff	vfpfcnvrt@fp,fputc@fp
  2601   0014E0  ECB7  F00D         	call	_fputc	;wreg free
  2602   0014E4  2A15               	incf	vfpfcnvrt@c^0,f,c
  2603   0014E6                     l2696:
  2604                           
  2605                           ;C:\Program Files\Microchip\xc8\v2.45\pic\sources\c99\common\doprnt.c: 1423:    while (c
      +                           != sizeof(dbuf)) {
  2606   0014E6  0E20               	movlw	32
  2607   0014E8  1815               	xorwf	vfpfcnvrt@c^0,w,c
  2608   0014EA  A4D8               	btfss	status,2,c
  2609   0014EC  EF7A  F00A         	goto	u1841
  2610   0014F0  EF7C  F00A         	goto	u1840
  2611   0014F4                     u1841:
  2612   0014F4  EF65  F00A         	goto	l2692
  2613   0014F8                     u1840:
  2614   0014F8  EF95  F00A         	goto	l1248
  2615   0014FC                     l2698:
  2616                           
  2617                           ;C:\Program Files\Microchip\xc8\v2.45\pic\sources\c99\common\doprnt.c: 1806:         ++*
      +                          fmt;
  2618   0014FC  500C               	movf	vfpfcnvrt@fmt^0,w,c
  2619   0014FE  6ED9               	movwf	fsr2l,c
  2620   001500  6ADA               	clrf	fsr2h,c
  2621   001502  2ADF               	incf	indf2,f,c
  2622   001504  EF95  F00A         	goto	l1248
  2623   001508                     l2702:
  2624                           
  2625                           ;C:\Program Files\Microchip\xc8\v2.45\pic\sources\c99\common\doprnt.c: 1811:     fputc((
      +                          int)(*fmt)[0], fp);
  2626   001508  500C               	movf	vfpfcnvrt@fmt^0,w,c
  2627   00150A  6ED9               	movwf	fsr2l,c
  2628   00150C  6ADA               	clrf	fsr2h,c
  2629   00150E  CFDF FFF6          	movff	indf2,tblptrl
  2630   001512                     	if	1	;There is more than 1 active tblptr byte
  2631   001512  0E10               	movlw	high __smallconst
  2632   001514  6EF7               	movwf	tblptrh,c
  2633   001516                     	endif
  2634   001516                     	if	0	;tblptru may be non-zero
  2635   001516                     	endif
  2636   001516                     	if	0	;tblptru may be non-zero
  2637   001516                     	endif
  2638   001516  0008               	tblrd		*
  2639   001518  50F5               	movf	tablat,w,c
  2640   00151A  6E01               	movwf	fputc@c^0,c
  2641   00151C  6A02               	clrf	(fputc@c+1)^0,c
  2642   00151E  C00B  F003         	movff	vfpfcnvrt@fp,fputc@fp
  2643   001522  ECB7  F00D         	call	_fputc	;wreg free
  2644   001526  EF7E  F00A         	goto	l2698
  2645   00152A                     l1248:
  2646   00152A  0012               	return		;funcret
  2647   00152C                     __end_of_vfpfcnvrt:
  2648                           	callstack 0
  2649                           
  2650 ;; *************** function _fputc *****************
  2651 ;; Defined at:
  2652 ;;		line 8 in file "C:\Program Files\Microchip\xc8\v2.45\pic\sources\c99\common\nf_fputc.c"
  2653 ;; Parameters:    Size  Location     Type
  2654 ;;  c               2    0[COMRAM] int 
  2655 ;;  fp              1    2[COMRAM] PTR struct _IO_FILE
  2656 ;;		 -> sprintf@f(12), 
  2657 ;; Auto vars:     Size  Location     Type
  2658 ;;		None
  2659 ;; Return value:  Size  Location     Type
  2660 ;;                  2    0[COMRAM] int 
  2661 ;; Registers used:
  2662 ;;		wreg, fsr1l, fsr1h, fsr2l, fsr2h, status,2, status,0, cstack
  2663 ;; Tracked objects:
  2664 ;;		On entry : 0/0
  2665 ;;		On exit  : 0/0
  2666 ;;		Unchanged: 0/0
  2667 ;; Data sizes:     COMRAM   BANK0   BANK1   BANK2   BANK3   BANK4   BANK5   BANK6   BANK7   BANK8   BANK9  BANK10  BANK1
      +1  BANK12  BANK13  BANK14  BANK15
  2668 ;;      Params:         3       0       0       0       0       0       0       0       0       0       0       0       
      +0       0       0       0       0
  2669 ;;      Locals:         0       0       0       0       0       0       0       0       0       0       0       0       
      +0       0       0       0       0
  2670 ;;      Temps:          5       0       0       0       0       0       0       0       0       0       0       0       
      +0       0       0       0       0
  2671 ;;      Totals:         8       0       0       0       0       0       0       0       0       0       0       0       
      +0       0       0       0       0
  2672 ;;Total ram usage:        8 bytes
  2673 ;; Hardware stack levels used: 1
  2674 ;; Hardware stack levels required when called: 1
  2675 ;; This function calls:
  2676 ;;		_putch
  2677 ;; This function is called by:
  2678 ;;		_vfpfcnvrt
  2679 ;; This function uses a non-reentrant model
  2680 ;;
  2681                           
  2682                           	psect	text11
  2683   001B6E                     __ptext11:
  2684                           	callstack 0
  2685   001B6E                     _fputc:
  2686                           	callstack 25
  2687   001B6E  5003               	movf	fputc@fp^0,w,c
  2688   001B70  B4D8               	btfsc	status,2,c
  2689   001B72  EFBD  F00D         	goto	u1671
  2690   001B76  EFBF  F00D         	goto	u1670
  2691   001B7A                     u1671:
  2692   001B7A  EFC7  F00D         	goto	l2622
  2693   001B7E                     u1670:
  2694   001B7E  5003               	movf	fputc@fp^0,w,c
  2695   001B80  A4D8               	btfss	status,2,c
  2696   001B82  EFC5  F00D         	goto	u1681
  2697   001B86  EFC7  F00D         	goto	u1680
  2698   001B8A                     u1681:
  2699   001B8A  EFCC  F00D         	goto	l2624
  2700   001B8E                     u1680:
  2701   001B8E                     l2622:
  2702   001B8E  5001               	movf	fputc@c^0,w,c
  2703   001B90  EC5F  F011         	call	_putch
  2704   001B94  EF0B  F00E         	goto	l1273
  2705   001B98                     l2624:
  2706   001B98  5003               	movf	fputc@fp^0,w,c
  2707   001B9A  6ED9               	movwf	fsr2l,c
  2708   001B9C  6ADA               	clrf	fsr2h,c
  2709   001B9E  0E0A               	movlw	10
  2710   001BA0  26D9               	addwf	fsr2l,f,c
  2711   001BA2  50DE               	movf	postinc2,w,c
  2712   001BA4  10DE               	iorwf	postinc2,w,c
  2713   001BA6  B4D8               	btfsc	status,2,c
  2714   001BA8  EFD8  F00D         	goto	u1691
  2715   001BAC  EFDA  F00D         	goto	u1690
  2716   001BB0                     u1691:
  2717   001BB0  EFF3  F00D         	goto	l2628
  2718   001BB4                     u1690:
  2719   001BB4  5003               	movf	fputc@fp^0,w,c
  2720   001BB6  6ED9               	movwf	fsr2l,c
  2721   001BB8  6ADA               	clrf	fsr2h,c
  2722   001BBA  0E0A               	movlw	10
  2723   001BBC  26D9               	addwf	fsr2l,f,c
  2724   001BBE  5003               	movf	fputc@fp^0,w,c
  2725   001BC0  6EE1               	movwf	fsr1l,c
  2726   001BC2  6AE2               	clrf	fsr1h,c
  2727   001BC4  0E03               	movlw	3
  2728   001BC6  26E1               	addwf	fsr1l,f,c
  2729   001BC8  50DE               	movf	postinc2,w,c
  2730   001BCA  5CE6               	subwf	postinc1,w,c
  2731   001BCC  50E6               	movf	postinc1,w,c
  2732   001BCE  0A80               	xorlw	128
  2733   001BD0  6E08               	movwf	(??_fputc+4)^0,c
  2734   001BD2  50DE               	movf	postinc2,w,c
  2735   001BD4  0A80               	xorlw	128
  2736   001BD6  5808               	subwfb	(??_fputc+4)^0,w,c
  2737   001BD8  B0D8               	btfsc	status,0,c
  2738   001BDA  EFF1  F00D         	goto	u1701
  2739   001BDE  EFF3  F00D         	goto	u1700
  2740   001BE2                     u1701:
  2741   001BE2  EF0B  F00E         	goto	l1273
  2742   001BE6                     u1700:
  2743   001BE6                     l2628:
  2744   001BE6  5003               	movf	fputc@fp^0,w,c
  2745   001BE8  6ED9               	movwf	fsr2l,c
  2746   001BEA  6ADA               	clrf	fsr2h,c
  2747   001BEC  0E03               	movlw	3
  2748   001BEE  26D9               	addwf	fsr2l,f,c
  2749   001BF0  50DF               	movf	indf2,w,c
  2750   001BF2  6E04               	movwf	??_fputc^0,c
  2751   001BF4  5003               	movf	fputc@fp^0,w,c
  2752   001BF6  6ED9               	movwf	fsr2l,c
  2753   001BF8  6ADA               	clrf	fsr2h,c
  2754   001BFA  50DF               	movf	indf2,w,c
  2755   001BFC  2404               	addwf	??_fputc^0,w,c
  2756   001BFE  6ED9               	movwf	fsr2l,c
  2757   001C00  6ADA               	clrf	fsr2h,c
  2758   001C02  C001  FFDF         	movff	fputc@c,indf2
  2759   001C06  5003               	movf	fputc@fp^0,w,c
  2760   001C08  6ED9               	movwf	fsr2l,c
  2761   001C0A  6ADA               	clrf	fsr2h,c
  2762   001C0C  0E03               	movlw	3
  2763   001C0E  26D9               	addwf	fsr2l,f,c
  2764   001C10  2ADE               	incf	postinc2,f,c
  2765   001C12  0E00               	movlw	0
  2766   001C14  22DD               	addwfc	postdec2,f,c
  2767   001C16                     l1273:
  2768   001C16  0012               	return		;funcret
  2769   001C18                     __end_of_fputc:
  2770                           	callstack 0
  2771                           
  2772 ;; *************** function _putch *****************
  2773 ;; Defined at:
  2774 ;;		line 7 in file "C:\Program Files\Microchip\xc8\v2.45\pic\sources\c99\common\putch.c"
  2775 ;; Parameters:    Size  Location     Type
  2776 ;;  c               1    wreg     unsigned char 
  2777 ;; Auto vars:     Size  Location     Type
  2778 ;;  c               1    0[COMRAM] unsigned char 
  2779 ;; Return value:  Size  Location     Type
  2780 ;;                  1    wreg      void 
  2781 ;; Registers used:
  2782 ;;		wreg
  2783 ;; Tracked objects:
  2784 ;;		On entry : 0/0
  2785 ;;		On exit  : 0/0
  2786 ;;		Unchanged: 0/0
  2787 ;; Data sizes:     COMRAM   BANK0   BANK1   BANK2   BANK3   BANK4   BANK5   BANK6   BANK7   BANK8   BANK9  BANK10  BANK1
      +1  BANK12  BANK13  BANK14  BANK15
  2788 ;;      Params:         0       0       0       0       0       0       0       0       0       0       0       0       
      +0       0       0       0       0
  2789 ;;      Locals:         0       0       0       0       0       0       0       0       0       0       0       0       
      +0       0       0       0       0
  2790 ;;      Temps:          0       0       0       0       0       0       0       0       0       0       0       0       
      +0       0       0       0       0
  2791 ;;      Totals:         0       0       0       0       0       0       0       0       0       0       0       0       
      +0       0       0       0       0
  2792 ;;Total ram usage:        0 bytes
  2793 ;; Hardware stack levels used: 1
  2794 ;; This function calls:
  2795 ;;		Nothing
  2796 ;; This function is called by:
  2797 ;;		_fputc
  2798 ;; This function uses a non-reentrant model
  2799 ;;
  2800                           
  2801                           	psect	text12
  2802   0022BE                     __ptext12:
  2803                           	callstack 0
  2804   0022BE                     _putch:
  2805                           	callstack 25
  2806   0022BE  0012               	return		;funcret
  2807   0022C0                     __end_of_putch:
  2808                           	callstack 0
  2809                           
  2810 ;; *************** function _abs *****************
  2811 ;; Defined at:
  2812 ;;		line 1 in file "C:\Program Files\Microchip\xc8\v2.45\pic\sources\c99\common\abs.c"
  2813 ;; Parameters:    Size  Location     Type
  2814 ;;  a               2    6[COMRAM] int 
  2815 ;; Auto vars:     Size  Location     Type
  2816 ;;		None
  2817 ;; Return value:  Size  Location     Type
  2818 ;;                  2    6[COMRAM] int 
  2819 ;; Registers used:
  2820 ;;		wreg, status,2, status,0
  2821 ;; Tracked objects:
  2822 ;;		On entry : 0/0
  2823 ;;		On exit  : 0/0
  2824 ;;		Unchanged: 0/0
  2825 ;; Data sizes:     COMRAM   BANK0   BANK1   BANK2   BANK3   BANK4   BANK5   BANK6   BANK7   BANK8   BANK9  BANK10  BANK1
      +1  BANK12  BANK13  BANK14  BANK15
  2826 ;;      Params:         2       0       0       0       0       0       0       0       0       0       0       0       
      +0       0       0       0       0
  2827 ;;      Locals:         0       0       0       0       0       0       0       0       0       0       0       0       
      +0       0       0       0       0
  2828 ;;      Temps:          2       0       0       0       0       0       0       0       0       0       0       0       
      +0       0       0       0       0
  2829 ;;      Totals:         4       0       0       0       0       0       0       0       0       0       0       0       
      +0       0       0       0       0
  2830 ;;Total ram usage:        4 bytes
  2831 ;; Hardware stack levels used: 1
  2832 ;; This function calls:
  2833 ;;		Nothing
  2834 ;; This function is called by:
  2835 ;;		_vfpfcnvrt
  2836 ;; This function uses a non-reentrant model
  2837 ;;
  2838                           
  2839                           	psect	text13
  2840   0021C0                     __ptext13:
  2841                           	callstack 0
  2842   0021C0                     _abs:
  2843                           	callstack 26
  2844   0021C0  BE08               	btfsc	(abs@a+1)^0,7,c
  2845   0021C2  EFE5  F010         	goto	u1711
  2846   0021C6  EFE7  F010         	goto	u1710
  2847   0021CA                     u1711:
  2848   0021CA  EFED  F010         	goto	l1258
  2849   0021CE                     u1710:
  2850   0021CE  C007  F007         	movff	abs@a,?_abs
  2851   0021D2  C008  F008         	movff	abs@a+1,?_abs+1
  2852   0021D6  EFF9  F010         	goto	l1261
  2853   0021DA                     l1258:
  2854   0021DA  C007  F009         	movff	abs@a,??_abs
  2855   0021DE  C008  F00A         	movff	abs@a+1,??_abs+1
  2856   0021E2  1E09               	comf	??_abs^0,f,c
  2857   0021E4  1E0A               	comf	(??_abs+1)^0,f,c
  2858   0021E6  4A09               	infsnz	??_abs^0,f,c
  2859   0021E8  2A0A               	incf	(??_abs+1)^0,f,c
  2860   0021EA  C009  F007         	movff	??_abs,?_abs
  2861   0021EE  C00A  F008         	movff	??_abs+1,?_abs+1
  2862   0021F2                     l1261:
  2863   0021F2  0012               	return		;funcret
  2864   0021F4                     __end_of_abs:
  2865                           	callstack 0
  2866                           
  2867 ;; *************** function ___awmod *****************
  2868 ;; Defined at:
  2869 ;;		line 7 in file "C:\Program Files\Microchip\xc8\v2.45\pic\sources\c99\common\awmod.c"
  2870 ;; Parameters:    Size  Location     Type
  2871 ;;  dividend        2    0[COMRAM] int 
  2872 ;;  divisor         2    2[COMRAM] int 
  2873 ;; Auto vars:     Size  Location     Type
  2874 ;;  sign            1    5[COMRAM] unsigned char 
  2875 ;;  counter         1    4[COMRAM] unsigned char 
  2876 ;; Return value:  Size  Location     Type
  2877 ;;                  2    0[COMRAM] int 
  2878 ;; Registers used:
  2879 ;;		wreg, status,2, status,0
  2880 ;; Tracked objects:
  2881 ;;		On entry : 0/0
  2882 ;;		On exit  : 0/0
  2883 ;;		Unchanged: 0/0
  2884 ;; Data sizes:     COMRAM   BANK0   BANK1   BANK2   BANK3   BANK4   BANK5   BANK6   BANK7   BANK8   BANK9  BANK10  BANK1
      +1  BANK12  BANK13  BANK14  BANK15
  2885 ;;      Params:         4       0       0       0       0       0       0       0       0       0       0       0       
      +0       0       0       0       0
  2886 ;;      Locals:         2       0       0       0       0       0       0       0       0       0       0       0       
      +0       0       0       0       0
  2887 ;;      Temps:          0       0       0       0       0       0       0       0       0       0       0       0       
      +0       0       0       0       0
  2888 ;;      Totals:         6       0       0       0       0       0       0       0       0       0       0       0       
      +0       0       0       0       0
  2889 ;;Total ram usage:        6 bytes
  2890 ;; Hardware stack levels used: 1
  2891 ;; This function calls:
  2892 ;;		Nothing
  2893 ;; This function is called by:
  2894 ;;		_vfpfcnvrt
  2895 ;; This function uses a non-reentrant model
  2896 ;;
  2897                           
  2898                           	psect	text14
  2899   001ABE                     __ptext14:
  2900                           	callstack 0
  2901   001ABE                     ___awmod:
  2902                           	callstack 26
  2903   001ABE  0E00               	movlw	0
  2904   001AC0  6E06               	movwf	___awmod@sign^0,c
  2905   001AC2  BE02               	btfsc	(___awmod@dividend+1)^0,7,c
  2906   001AC4  EF68  F00D         	goto	u1610
  2907   001AC8  EF66  F00D         	goto	u1611
  2908   001ACC                     u1611:
  2909   001ACC  EF6E  F00D         	goto	l2590
  2910   001AD0                     u1610:
  2911   001AD0  6C01               	negf	___awmod@dividend^0,c
  2912   001AD2  1E02               	comf	(___awmod@dividend+1)^0,f,c
  2913   001AD4  B0D8               	btfsc	status,0,c
  2914   001AD6  2A02               	incf	(___awmod@dividend+1)^0,f,c
  2915   001AD8  0E01               	movlw	1
  2916   001ADA  6E06               	movwf	___awmod@sign^0,c
  2917   001ADC                     l2590:
  2918   001ADC  BE04               	btfsc	(___awmod@divisor+1)^0,7,c
  2919   001ADE  EF75  F00D         	goto	u1620
  2920   001AE2  EF73  F00D         	goto	u1621
  2921   001AE6                     u1621:
  2922   001AE6  EF79  F00D         	goto	l2594
  2923   001AEA                     u1620:
  2924   001AEA  6C03               	negf	___awmod@divisor^0,c
  2925   001AEC  1E04               	comf	(___awmod@divisor+1)^0,f,c
  2926   001AEE  B0D8               	btfsc	status,0,c
  2927   001AF0  2A04               	incf	(___awmod@divisor+1)^0,f,c
  2928   001AF2                     l2594:
  2929   001AF2  5003               	movf	___awmod@divisor^0,w,c
  2930   001AF4  1004               	iorwf	(___awmod@divisor+1)^0,w,c
  2931   001AF6  B4D8               	btfsc	status,2,c
  2932   001AF8  EF80  F00D         	goto	u1631
  2933   001AFC  EF82  F00D         	goto	u1630
  2934   001B00                     u1631:
  2935   001B00  EFA6  F00D         	goto	l2610
  2936   001B04                     u1630:
  2937   001B04  0E01               	movlw	1
  2938   001B06  6E05               	movwf	___awmod@counter^0,c
  2939   001B08  EF8A  F00D         	goto	l2600
  2940   001B0C                     l2598:
  2941   001B0C  90D8               	bcf	status,0,c
  2942   001B0E  3603               	rlcf	___awmod@divisor^0,f,c
  2943   001B10  3604               	rlcf	(___awmod@divisor+1)^0,f,c
  2944   001B12  2A05               	incf	___awmod@counter^0,f,c
  2945   001B14                     l2600:
  2946   001B14  AE04               	btfss	(___awmod@divisor+1)^0,7,c
  2947   001B16  EF8F  F00D         	goto	u1641
  2948   001B1A  EF91  F00D         	goto	u1640
  2949   001B1E                     u1641:
  2950   001B1E  EF86  F00D         	goto	l2598
  2951   001B22                     u1640:
  2952   001B22                     l2602:
  2953   001B22  5003               	movf	___awmod@divisor^0,w,c
  2954   001B24  5C01               	subwf	___awmod@dividend^0,w,c
  2955   001B26  5004               	movf	(___awmod@divisor+1)^0,w,c
  2956   001B28  5802               	subwfb	(___awmod@dividend+1)^0,w,c
  2957   001B2A  A0D8               	btfss	status,0,c
  2958   001B2C  EF9A  F00D         	goto	u1651
  2959   001B30  EF9C  F00D         	goto	u1650
  2960   001B34                     u1651:
  2961   001B34  EFA0  F00D         	goto	l2606
  2962   001B38                     u1650:
  2963   001B38  5003               	movf	___awmod@divisor^0,w,c
  2964   001B3A  5E01               	subwf	___awmod@dividend^0,f,c
  2965   001B3C  5004               	movf	(___awmod@divisor+1)^0,w,c
  2966   001B3E  5A02               	subwfb	(___awmod@dividend+1)^0,f,c
  2967   001B40                     l2606:
  2968   001B40  90D8               	bcf	status,0,c
  2969   001B42  3204               	rrcf	(___awmod@divisor+1)^0,f,c
  2970   001B44  3203               	rrcf	___awmod@divisor^0,f,c
  2971   001B46  2E05               	decfsz	___awmod@counter^0,f,c
  2972   001B48  EF91  F00D         	goto	l2602
  2973   001B4C                     l2610:
  2974   001B4C  5006               	movf	___awmod@sign^0,w,c
  2975   001B4E  B4D8               	btfsc	status,2,c
  2976   001B50  EFAC  F00D         	goto	u1661
  2977   001B54  EFAE  F00D         	goto	u1660
  2978   001B58                     u1661:
  2979   001B58  EFB2  F00D         	goto	l2614
  2980   001B5C                     u1660:
  2981   001B5C  6C01               	negf	___awmod@dividend^0,c
  2982   001B5E  1E02               	comf	(___awmod@dividend+1)^0,f,c
  2983   001B60  B0D8               	btfsc	status,0,c
  2984   001B62  2A02               	incf	(___awmod@dividend+1)^0,f,c
  2985   001B64                     l2614:
  2986   001B64  C001  F001         	movff	___awmod@dividend,?___awmod
  2987   001B68  C002  F002         	movff	___awmod@dividend+1,?___awmod+1
  2988   001B6C  0012               	return		;funcret
  2989   001B6E                     __end_of___awmod:
  2990                           	callstack 0
  2991                           
  2992 ;; *************** function ___awdiv *****************
  2993 ;; Defined at:
  2994 ;;		line 7 in file "C:\Program Files\Microchip\xc8\v2.45\pic\sources\c99\common\awdiv.c"
  2995 ;; Parameters:    Size  Location     Type
  2996 ;;  dividend        2    0[COMRAM] int 
  2997 ;;  divisor         2    2[COMRAM] int 
  2998 ;; Auto vars:     Size  Location     Type
  2999 ;;  quotient        2    6[COMRAM] int 
  3000 ;;  sign            1    5[COMRAM] unsigned char 
  3001 ;;  counter         1    4[COMRAM] unsigned char 
  3002 ;; Return value:  Size  Location     Type
  3003 ;;                  2    0[COMRAM] int 
  3004 ;; Registers used:
  3005 ;;		wreg, status,2, status,0
  3006 ;; Tracked objects:
  3007 ;;		On entry : 0/0
  3008 ;;		On exit  : 0/0
  3009 ;;		Unchanged: 0/0
  3010 ;; Data sizes:     COMRAM   BANK0   BANK1   BANK2   BANK3   BANK4   BANK5   BANK6   BANK7   BANK8   BANK9  BANK10  BANK1
      +1  BANK12  BANK13  BANK14  BANK15
  3011 ;;      Params:         4       0       0       0       0       0       0       0       0       0       0       0       
      +0       0       0       0       0
  3012 ;;      Locals:         4       0       0       0       0       0       0       0       0       0       0       0       
      +0       0       0       0       0
  3013 ;;      Temps:          0       0       0       0       0       0       0       0       0       0       0       0       
      +0       0       0       0       0
  3014 ;;      Totals:         8       0       0       0       0       0       0       0       0       0       0       0       
      +0       0       0       0       0
  3015 ;;Total ram usage:        8 bytes
  3016 ;; Hardware stack levels used: 1
  3017 ;; This function calls:
  3018 ;;		Nothing
  3019 ;; This function is called by:
  3020 ;;		_vfpfcnvrt
  3021 ;; This function uses a non-reentrant model
  3022 ;;
  3023                           
  3024                           	psect	text15
  3025   00194A                     __ptext15:
  3026                           	callstack 0
  3027   00194A                     ___awdiv:
  3028                           	callstack 26
  3029   00194A  0E00               	movlw	0
  3030   00194C  6E06               	movwf	___awdiv@sign^0,c
  3031   00194E  BE04               	btfsc	(___awdiv@divisor+1)^0,7,c
  3032   001950  EFAE  F00C         	goto	u1550
  3033   001954  EFAC  F00C         	goto	u1551
  3034   001958                     u1551:
  3035   001958  EFB4  F00C         	goto	l2546
  3036   00195C                     u1550:
  3037   00195C  6C03               	negf	___awdiv@divisor^0,c
  3038   00195E  1E04               	comf	(___awdiv@divisor+1)^0,f,c
  3039   001960  B0D8               	btfsc	status,0,c
  3040   001962  2A04               	incf	(___awdiv@divisor+1)^0,f,c
  3041   001964  0E01               	movlw	1
  3042   001966  6E06               	movwf	___awdiv@sign^0,c
  3043   001968                     l2546:
  3044   001968  BE02               	btfsc	(___awdiv@dividend+1)^0,7,c
  3045   00196A  EFBB  F00C         	goto	u1560
  3046   00196E  EFB9  F00C         	goto	u1561
  3047   001972                     u1561:
  3048   001972  EFC1  F00C         	goto	l2552
  3049   001976                     u1560:
  3050   001976  6C01               	negf	___awdiv@dividend^0,c
  3051   001978  1E02               	comf	(___awdiv@dividend+1)^0,f,c
  3052   00197A  B0D8               	btfsc	status,0,c
  3053   00197C  2A02               	incf	(___awdiv@dividend+1)^0,f,c
  3054   00197E  0E01               	movlw	1
  3055   001980  1A06               	xorwf	___awdiv@sign^0,f,c
  3056   001982                     l2552:
  3057   001982  0E00               	movlw	0
  3058   001984  6E08               	movwf	(___awdiv@quotient+1)^0,c
  3059   001986  0E00               	movlw	0
  3060   001988  6E07               	movwf	___awdiv@quotient^0,c
  3061   00198A  5003               	movf	___awdiv@divisor^0,w,c
  3062   00198C  1004               	iorwf	(___awdiv@divisor+1)^0,w,c
  3063   00198E  B4D8               	btfsc	status,2,c
  3064   001990  EFCC  F00C         	goto	u1571
  3065   001994  EFCE  F00C         	goto	u1570
  3066   001998                     u1571:
  3067   001998  EFF6  F00C         	goto	l2574
  3068   00199C                     u1570:
  3069   00199C  0E01               	movlw	1
  3070   00199E  6E05               	movwf	___awdiv@counter^0,c
  3071   0019A0  EFD6  F00C         	goto	l2560
  3072   0019A4                     l2558:
  3073   0019A4  90D8               	bcf	status,0,c
  3074   0019A6  3603               	rlcf	___awdiv@divisor^0,f,c
  3075   0019A8  3604               	rlcf	(___awdiv@divisor+1)^0,f,c
  3076   0019AA  2A05               	incf	___awdiv@counter^0,f,c
  3077   0019AC                     l2560:
  3078   0019AC  AE04               	btfss	(___awdiv@divisor+1)^0,7,c
  3079   0019AE  EFDB  F00C         	goto	u1581
  3080   0019B2  EFDD  F00C         	goto	u1580
  3081   0019B6                     u1581:
  3082   0019B6  EFD2  F00C         	goto	l2558
  3083   0019BA                     u1580:
  3084   0019BA                     l2562:
  3085   0019BA  90D8               	bcf	status,0,c
  3086   0019BC  3607               	rlcf	___awdiv@quotient^0,f,c
  3087   0019BE  3608               	rlcf	(___awdiv@quotient+1)^0,f,c
  3088   0019C0  5003               	movf	___awdiv@divisor^0,w,c
  3089   0019C2  5C01               	subwf	___awdiv@dividend^0,w,c
  3090   0019C4  5004               	movf	(___awdiv@divisor+1)^0,w,c
  3091   0019C6  5802               	subwfb	(___awdiv@dividend+1)^0,w,c
  3092   0019C8  A0D8               	btfss	status,0,c
  3093   0019CA  EFE9  F00C         	goto	u1591
  3094   0019CE  EFEB  F00C         	goto	u1590
  3095   0019D2                     u1591:
  3096   0019D2  EFF0  F00C         	goto	l2570
  3097   0019D6                     u1590:
  3098   0019D6  5003               	movf	___awdiv@divisor^0,w,c
  3099   0019D8  5E01               	subwf	___awdiv@dividend^0,f,c
  3100   0019DA  5004               	movf	(___awdiv@divisor+1)^0,w,c
  3101   0019DC  5A02               	subwfb	(___awdiv@dividend+1)^0,f,c
  3102   0019DE  8007               	bsf	___awdiv@quotient^0,0,c
  3103   0019E0                     l2570:
  3104   0019E0  90D8               	bcf	status,0,c
  3105   0019E2  3204               	rrcf	(___awdiv@divisor+1)^0,f,c
  3106   0019E4  3203               	rrcf	___awdiv@divisor^0,f,c
  3107   0019E6  2E05               	decfsz	___awdiv@counter^0,f,c
  3108   0019E8  EFDD  F00C         	goto	l2562
  3109   0019EC                     l2574:
  3110   0019EC  5006               	movf	___awdiv@sign^0,w,c
  3111   0019EE  B4D8               	btfsc	status,2,c
  3112   0019F0  EFFC  F00C         	goto	u1601
  3113   0019F4  EFFE  F00C         	goto	u1600
  3114   0019F8                     u1601:
  3115   0019F8  EF02  F00D         	goto	l2578
  3116   0019FC                     u1600:
  3117   0019FC  6C07               	negf	___awdiv@quotient^0,c
  3118   0019FE  1E08               	comf	(___awdiv@quotient+1)^0,f,c
  3119   001A00  B0D8               	btfsc	status,0,c
  3120   001A02  2A08               	incf	(___awdiv@quotient+1)^0,f,c
  3121   001A04                     l2578:
  3122   001A04  C007  F001         	movff	___awdiv@quotient,?___awdiv
  3123   001A08  C008  F002         	movff	___awdiv@quotient+1,?___awdiv+1
  3124   001A0C  0012               	return		;funcret
  3125   001A0E                     __end_of___awdiv:
  3126                           	callstack 0
  3127                           
  3128 ;; *************** function _memset *****************
  3129 ;; Defined at:
  3130 ;;		line 3 in file "C:\Program Files\Microchip\xc8\v2.45\pic\sources\c99\common\memset.c"
  3131 ;; Parameters:    Size  Location     Type
  3132 ;;  dest            1    0[COMRAM] PTR void 
  3133 ;;		 -> main@result(12), 
  3134 ;;  c               2    1[COMRAM] int 
  3135 ;;  n               2    3[COMRAM] unsigned int 
  3136 ;; Auto vars:     Size  Location     Type
  3137 ;;  p               1    5[COMRAM] PTR unsigned char 
  3138 ;;		 -> main@result(12), 
  3139 ;; Return value:  Size  Location     Type
  3140 ;;                  1    wreg      PTR void 
  3141 ;; Registers used:
  3142 ;;		wreg, fsr2l, fsr2h, status,2, status,0
  3143 ;; Tracked objects:
  3144 ;;		On entry : 0/0
  3145 ;;		On exit  : 0/0
  3146 ;;		Unchanged: 0/0
  3147 ;; Data sizes:     COMRAM   BANK0   BANK1   BANK2   BANK3   BANK4   BANK5   BANK6   BANK7   BANK8   BANK9  BANK10  BANK1
      +1  BANK12  BANK13  BANK14  BANK15
  3148 ;;      Params:         5       0       0       0       0       0       0       0       0       0       0       0       
      +0       0       0       0       0
  3149 ;;      Locals:         1       0       0       0       0       0       0       0       0       0       0       0       
      +0       0       0       0       0
  3150 ;;      Temps:          0       0       0       0       0       0       0       0       0       0       0       0       
      +0       0       0       0       0
  3151 ;;      Totals:         6       0       0       0       0       0       0       0       0       0       0       0       
      +0       0       0       0       0
  3152 ;;Total ram usage:        6 bytes
  3153 ;; Hardware stack levels used: 1
  3154 ;; This function calls:
  3155 ;;		Nothing
  3156 ;; This function is called by:
  3157 ;;		_convert_uint16_to_string
  3158 ;;		_convert_uint8_to_string
  3159 ;;		_convert_uint32_to_string
  3160 ;; This function uses a non-reentrant model
  3161 ;;
  3162                           
  3163                           	psect	text16
  3164   0021F4                     __ptext16:
  3165                           	callstack 0
  3166   0021F4                     _memset:
  3167                           	callstack 29
  3168   0021F4  C001  F006         	movff	memset@dest,memset@p
  3169   0021F8  EF04  F011         	goto	l2888
  3170   0021FC                     l2884:
  3171   0021FC  5006               	movf	memset@p^0,w,c
  3172   0021FE  6ED9               	movwf	fsr2l,c
  3173   002200  6ADA               	clrf	fsr2h,c
  3174   002202  C002  FFDF         	movff	memset@c,indf2
  3175   002206  2A06               	incf	memset@p^0,f,c
  3176   002208                     l2888:
  3177   002208  0604               	decf	memset@n^0,f,c
  3178   00220A  A0D8               	btfss	status,0,c
  3179   00220C  0605               	decf	(memset@n+1)^0,f,c
  3180   00220E  2804               	incf	memset@n^0,w,c
  3181   002210  E106               	bnz	u2011
  3182   002212  2805               	incf	(memset@n+1)^0,w,c
  3183   002214  A4D8               	btfss	status,2,c
  3184   002216  EF0F  F011         	goto	u2011
  3185   00221A  EF11  F011         	goto	u2010
  3186   00221E                     u2011:
  3187   00221E  EFFE  F010         	goto	l2884
  3188   002222                     u2010:
  3189   002222  0012               	return		;funcret
  3190   002224                     __end_of_memset:
  3191                           	callstack 0
  3192                           
  3193 ;; *************** function _clearDataArrays *****************
  3194 ;; Defined at:
  3195 ;;		line 463 in file "ECU_Layer/Chr_LCD/ecu_chr_lcd.c"
  3196 ;; Parameters:    Size  Location     Type
  3197 ;;  arr             1    0[COMRAM] PTR unsigned char 
  3198 ;;		 -> main@SecondNumber(6), main@FirstNumber(6), 
  3199 ;;  size            1    1[COMRAM] unsigned char 
  3200 ;; Auto vars:     Size  Location     Type
  3201 ;;  i               1    2[COMRAM] unsigned char 
  3202 ;; Return value:  Size  Location     Type
  3203 ;;                  1    wreg      void 
  3204 ;; Registers used:
  3205 ;;		wreg, fsr2l, fsr2h, status,2, status,0
  3206 ;; Tracked objects:
  3207 ;;		On entry : 0/0
  3208 ;;		On exit  : 0/0
  3209 ;;		Unchanged: 0/0
  3210 ;; Data sizes:     COMRAM   BANK0   BANK1   BANK2   BANK3   BANK4   BANK5   BANK6   BANK7   BANK8   BANK9  BANK10  BANK1
      +1  BANK12  BANK13  BANK14  BANK15
  3211 ;;      Params:         2       0       0       0       0       0       0       0       0       0       0       0       
      +0       0       0       0       0
  3212 ;;      Locals:         1       0       0       0       0       0       0       0       0       0       0       0       
      +0       0       0       0       0
  3213 ;;      Temps:          0       0       0       0       0       0       0       0       0       0       0       0       
      +0       0       0       0       0
  3214 ;;      Totals:         3       0       0       0       0       0       0       0       0       0       0       0       
      +0       0       0       0       0
  3215 ;;Total ram usage:        3 bytes
  3216 ;; Hardware stack levels used: 1
  3217 ;; This function calls:
  3218 ;;		Nothing
  3219 ;; This function is called by:
  3220 ;;		_main
  3221 ;; This function uses a non-reentrant model
  3222 ;;
  3223                           
  3224                           	psect	text17
  3225   002224                     __ptext17:
  3226                           	callstack 0
  3227   002224                     _clearDataArrays:
  3228                           	callstack 30
  3229   002224                     
  3230                           ;ECU_Layer/Chr_LCD/ecu_chr_lcd.c: 464:     for (uint8 i = 0; i < size; i++) {
  3231   002224  0E00               	movlw	0
  3232   002226  6E03               	movwf	clearDataArrays@i^0,c
  3233   002228  EF1C  F011         	goto	l3006
  3234   00222C                     l3002:
  3235                           
  3236                           ;ECU_Layer/Chr_LCD/ecu_chr_lcd.c: 465:         arr[i] = '\0';
  3237   00222C  5001               	movf	clearDataArrays@arr^0,w,c
  3238   00222E  2403               	addwf	clearDataArrays@i^0,w,c
  3239   002230  6ED9               	movwf	fsr2l,c
  3240   002232  6ADA               	clrf	fsr2h,c
  3241   002234  6ADF               	clrf	indf2,c
  3242   002236                     
  3243                           ;ECU_Layer/Chr_LCD/ecu_chr_lcd.c: 466:     }
  3244   002236  2A03               	incf	clearDataArrays@i^0,f,c
  3245   002238                     l3006:
  3246   002238  5002               	movf	clearDataArrays@size^0,w,c
  3247   00223A  5C03               	subwf	clearDataArrays@i^0,w,c
  3248   00223C  A0D8               	btfss	status,0,c
  3249   00223E  EF23  F011         	goto	u2151
  3250   002242  EF25  F011         	goto	u2150
  3251   002246                     u2151:
  3252   002246  EF16  F011         	goto	l3002
  3253   00224A                     u2150:
  3254   00224A  0012               	return		;funcret
  3255   00224C                     __end_of_clearDataArrays:
  3256                           	callstack 0
  3257                           
  3258 ;; *************** function _application_intialize *****************
  3259 ;; Defined at:
  3260 ;;		line 112 in file "application.c"
  3261 ;; Parameters:    Size  Location     Type
  3262 ;;		None
  3263 ;; Auto vars:     Size  Location     Type
  3264 ;;		None
  3265 ;; Return value:  Size  Location     Type
  3266 ;;                  1    wreg      void 
  3267 ;; Registers used:
  3268 ;;		wreg, fsr2l, fsr2h, status,2, status,0, prodl, prodh, cstack
  3269 ;; Tracked objects:
  3270 ;;		On entry : 0/0
  3271 ;;		On exit  : 0/0
  3272 ;;		Unchanged: 0/0
  3273 ;; Data sizes:     COMRAM   BANK0   BANK1   BANK2   BANK3   BANK4   BANK5   BANK6   BANK7   BANK8   BANK9  BANK10  BANK1
      +1  BANK12  BANK13  BANK14  BANK15
  3274 ;;      Params:         0       0       0       0       0       0       0       0       0       0       0       0       
      +0       0       0       0       0
  3275 ;;      Locals:         0       0       0       0       0       0       0       0       0       0       0       0       
      +0       0       0       0       0
  3276 ;;      Temps:          0       0       0       0       0       0       0       0       0       0       0       0       
      +0       0       0       0       0
  3277 ;;      Totals:         0       0       0       0       0       0       0       0       0       0       0       0       
      +0       0       0       0       0
  3278 ;;Total ram usage:        0 bytes
  3279 ;; Hardware stack levels used: 1
  3280 ;; Hardware stack levels required when called: 5
  3281 ;; This function calls:
  3282 ;;		_ecu_layer_intialize
  3283 ;; This function is called by:
  3284 ;;		_main
  3285 ;; This function uses a non-reentrant model
  3286 ;;
  3287                           
  3288                           	psect	text18
  3289   0022B8                     __ptext18:
  3290                           	callstack 0
  3291   0022B8                     _application_intialize:
  3292                           	callstack 25
  3293   0022B8                     
  3294                           ;application.c: 113:      ecu_layer_intialize();
  3295   0022B8  EC4A  F011         	call	_ecu_layer_intialize	;wreg free
  3296   0022BC  0012               	return		;funcret
  3297   0022BE                     __end_of_application_intialize:
  3298                           	callstack 0
  3299                           
  3300 ;; *************** function _ecu_layer_intialize *****************
  3301 ;; Defined at:
  3302 ;;		line 148 in file "ECU_Layer/ecu_layer_init.c"
  3303 ;; Parameters:    Size  Location     Type
  3304 ;;		None
  3305 ;; Auto vars:     Size  Location     Type
  3306 ;;		None
  3307 ;; Return value:  Size  Location     Type
  3308 ;;                  1    wreg      void 
  3309 ;; Registers used:
  3310 ;;		wreg, fsr2l, fsr2h, status,2, status,0, prodl, prodh, cstack
  3311 ;; Tracked objects:
  3312 ;;		On entry : 0/0
  3313 ;;		On exit  : 0/0
  3314 ;;		Unchanged: 0/0
  3315 ;; Data sizes:     COMRAM   BANK0   BANK1   BANK2   BANK3   BANK4   BANK5   BANK6   BANK7   BANK8   BANK9  BANK10  BANK1
      +1  BANK12  BANK13  BANK14  BANK15
  3316 ;;      Params:         0       0       0       0       0       0       0       0       0       0       0       0       
      +0       0       0       0       0
  3317 ;;      Locals:         0       0       0       0       0       0       0       0       0       0       0       0       
      +0       0       0       0       0
  3318 ;;      Temps:          0       0       0       0       0       0       0       0       0       0       0       0       
      +0       0       0       0       0
  3319 ;;      Totals:         0       0       0       0       0       0       0       0       0       0       0       0       
      +0       0       0       0       0
  3320 ;;Total ram usage:        0 bytes
  3321 ;; Hardware stack levels used: 1
  3322 ;; Hardware stack levels required when called: 4
  3323 ;; This function calls:
  3324 ;;		_keypad_initialize
  3325 ;;		_lcd_4bit_initialize
  3326 ;; This function is called by:
  3327 ;;		_application_intialize
  3328 ;; This function uses a non-reentrant model
  3329 ;;
  3330                           
  3331                           	psect	text19
  3332   002294                     __ptext19:
  3333                           	callstack 0
  3334   002294                     _ecu_layer_intialize:
  3335                           	callstack 25
  3336   002294                     
  3337                           ;ECU_Layer/ecu_layer_init.c: 149:     ret = lcd_4bit_initialize(&lcd_1);
  3338   002294  0E6E               	movlw	low _lcd_1
  3339   002296  6E0F               	movwf	lcd_4bit_initialize@lcd^0,c
  3340   002298  EC30  F00C         	call	_lcd_4bit_initialize	;wreg free
  3341   00229C  0100               	movlb	0	; () banked
  3342   00229E  6FAA               	movwf	_ret& (0+255),b
  3343                           
  3344                           ;ECU_Layer/ecu_layer_init.c: 151:     ret = keypad_initialize(&keypad_1);
  3345   0022A0  0E66               	movlw	low _keypad_1
  3346   0022A2  6E0C               	movwf	keypad_initialize@_keypad_obj^0,c
  3347   0022A4  EC5D  F00F         	call	_keypad_initialize	;wreg free
  3348   0022A8  0100               	movlb	0	; () banked
  3349   0022AA  6FAA               	movwf	_ret& (0+255),b
  3350   0022AC                     
  3351                           ; BSR set to: 0
  3352   0022AC  0012               	return		;funcret
  3353   0022AE                     __end_of_ecu_layer_intialize:
  3354                           	callstack 0
  3355                           
  3356 ;; *************** function _lcd_4bit_initialize *****************
  3357 ;; Defined at:
  3358 ;;		line 17 in file "ECU_Layer/Chr_LCD/ecu_chr_lcd.c"
  3359 ;; Parameters:    Size  Location     Type
  3360 ;;  lcd             1   14[COMRAM] PTR const struct .
  3361 ;;		 -> lcd_1(6), 
  3362 ;; Auto vars:     Size  Location     Type
  3363 ;;  ret             1   17[COMRAM] unsigned char 
  3364 ;;  l_data_pins_    1   16[COMRAM] unsigned char 
  3365 ;; Return value:  Size  Location     Type
  3366 ;;                  1    wreg      unsigned char 
  3367 ;; Registers used:
  3368 ;;		wreg, fsr2l, fsr2h, status,2, status,0, prodl, prodh, cstack
  3369 ;; Tracked objects:
  3370 ;;		On entry : 0/0
  3371 ;;		On exit  : 0/0
  3372 ;;		Unchanged: 0/0
  3373 ;; Data sizes:     COMRAM   BANK0   BANK1   BANK2   BANK3   BANK4   BANK5   BANK6   BANK7   BANK8   BANK9  BANK10  BANK1
      +1  BANK12  BANK13  BANK14  BANK15
  3374 ;;      Params:         1       0       0       0       0       0       0       0       0       0       0       0       
      +0       0       0       0       0
  3375 ;;      Locals:         2       0       0       0       0       0       0       0       0       0       0       0       
      +0       0       0       0       0
  3376 ;;      Temps:          1       0       0       0       0       0       0       0       0       0       0       0       
      +0       0       0       0       0
  3377 ;;      Totals:         4       0       0       0       0       0       0       0       0       0       0       0       
      +0       0       0       0       0
  3378 ;;Total ram usage:        4 bytes
  3379 ;; Hardware stack levels used: 1
  3380 ;; Hardware stack levels required when called: 3
  3381 ;; This function calls:
  3382 ;;		_gpio_pin_intialize
  3383 ;;		_lcd_4bit_send_command
  3384 ;; This function is called by:
  3385 ;;		_ecu_layer_intialize
  3386 ;; This function uses a non-reentrant model
  3387 ;;
  3388                           
  3389                           	psect	text20
  3390   001860                     __ptext20:
  3391                           	callstack 0
  3392   001860                     _lcd_4bit_initialize:
  3393                           	callstack 25
  3394   001860                     
  3395                           ;ECU_Layer/Chr_LCD/ecu_chr_lcd.c: 19:     uint8 l_data_pins_counter = 0 ;
  3396   001860  0E00               	movlw	0
  3397   001862  6E11               	movwf	lcd_4bit_initialize@l_data_pins_counter^0,c
  3398                           
  3399                           ;ECU_Layer/Chr_LCD/ecu_chr_lcd.c: 20:      if(((void*)0) == lcd)
  3400   001864  500F               	movf	lcd_4bit_initialize@lcd^0,w,c
  3401   001866  A4D8               	btfss	status,2,c
  3402   001868  EF38  F00C         	goto	u1851
  3403   00186C  EF3A  F00C         	goto	u1850
  3404   001870                     u1851:
  3405   001870  EF3E  F00C         	goto	l2712
  3406   001874                     u1850:
  3407   001874                     
  3408                           ;ECU_Layer/Chr_LCD/ecu_chr_lcd.c: 21:      {;ECU_Layer/Chr_LCD/ecu_chr_lcd.c: 22:       
      +                            ret = (Std_ReturnType)0x00 ;
  3409   001874  0E00               	movlw	0
  3410   001876  6E12               	movwf	lcd_4bit_initialize@ret^0,c
  3411                           
  3412                           ;ECU_Layer/Chr_LCD/ecu_chr_lcd.c: 23:      }
  3413   001878  EFA3  F00C         	goto	l2748
  3414   00187C                     l2712:
  3415                           
  3416                           ;ECU_Layer/Chr_LCD/ecu_chr_lcd.c: 25:      {;ECU_Layer/Chr_LCD/ecu_chr_lcd.c: 26:       
      +                            ret = gpio_pin_intialize(&(lcd->lcd_rs));
  3417   00187C  C00F  F009         	movff	lcd_4bit_initialize@lcd,gpio_pin_intialize@_pin_config
  3418   001880  ECC1  F00F         	call	_gpio_pin_intialize	;wreg free
  3419   001884  6E12               	movwf	lcd_4bit_initialize@ret^0,c
  3420                           
  3421                           ;ECU_Layer/Chr_LCD/ecu_chr_lcd.c: 27:         ret = gpio_pin_intialize(&(lcd->lcd_en));
  3422   001886  280F               	incf	lcd_4bit_initialize@lcd^0,w,c
  3423   001888  6E09               	movwf	gpio_pin_intialize@_pin_config^0,c
  3424   00188A  ECC1  F00F         	call	_gpio_pin_intialize	;wreg free
  3425   00188E  6E12               	movwf	lcd_4bit_initialize@ret^0,c
  3426   001890                     
  3427                           ;ECU_Layer/Chr_LCD/ecu_chr_lcd.c: 28:         for(l_data_pins_counter = 0;l_data_pins_co
      +                          unter < 4;l_data_pins_counter++)
  3428   001890  0E00               	movlw	0
  3429   001892  6E11               	movwf	lcd_4bit_initialize@l_data_pins_counter^0,c
  3430   001894                     l2720:
  3431   001894  500F               	movf	lcd_4bit_initialize@lcd^0,w,c
  3432   001896  2411               	addwf	lcd_4bit_initialize@l_data_pins_counter^0,w,c
  3433   001898  0F02               	addlw	2
  3434   00189A  6E09               	movwf	gpio_pin_intialize@_pin_config^0,c
  3435   00189C  ECC1  F00F         	call	_gpio_pin_intialize	;wreg free
  3436   0018A0                     
  3437                           ;ECU_Layer/Chr_LCD/ecu_chr_lcd.c: 31:         }
  3438   0018A0  2A11               	incf	lcd_4bit_initialize@l_data_pins_counter^0,f,c
  3439   0018A2  0E03               	movlw	3
  3440   0018A4  6411               	cpfsgt	lcd_4bit_initialize@l_data_pins_counter^0,c
  3441   0018A6  EF57  F00C         	goto	u1861
  3442   0018AA  EF59  F00C         	goto	u1860
  3443   0018AE                     u1861:
  3444   0018AE  EF4A  F00C         	goto	l2720
  3445   0018B2                     u1860:
  3446   0018B2                     
  3447                           ;ECU_Layer/Chr_LCD/ecu_chr_lcd.c: 32:         _delay((unsigned long)((20)*(4000000UL/400
      +                          0.0)));
  3448   0018B2  0E1A               	movlw	26
  3449   0018B4  6E10               	movwf	??_lcd_4bit_initialize^0,c
  3450   0018B6  0EF8               	movlw	248
  3451   0018B8                     u2747:
  3452   0018B8  2EE8               	decfsz	wreg,f,c
  3453   0018BA  D7FE               	bra	u2747
  3454   0018BC  2E10               	decfsz	??_lcd_4bit_initialize^0,f,c
  3455   0018BE  D7FC               	bra	u2747
  3456   0018C0  D000               	nop2	
  3457   0018C2  C00F  F00C         	movff	lcd_4bit_initialize@lcd,lcd_4bit_send_command@lcd
  3458   0018C6  0E38               	movlw	56
  3459   0018C8  6E0D               	movwf	lcd_4bit_send_command@command^0,c
  3460   0018CA  EC1A  F010         	call	_lcd_4bit_send_command	;wreg free
  3461   0018CE                     
  3462                           ;ECU_Layer/Chr_LCD/ecu_chr_lcd.c: 34:         _delay((unsigned long)((5)*(4000000UL/4000
      +                          .0)));
  3463   0018CE  0E07               	movlw	7
  3464   0018D0  6E10               	movwf	??_lcd_4bit_initialize^0,c
  3465   0018D2  0E7D               	movlw	125
  3466   0018D4                     u2757:
  3467   0018D4  2EE8               	decfsz	wreg,f,c
  3468   0018D6  D7FE               	bra	u2757
  3469   0018D8  2E10               	decfsz	??_lcd_4bit_initialize^0,f,c
  3470   0018DA  D7FC               	bra	u2757
  3471   0018DC  0000               	nop	
  3472   0018DE  C00F  F00C         	movff	lcd_4bit_initialize@lcd,lcd_4bit_send_command@lcd
  3473   0018E2  0E38               	movlw	56
  3474   0018E4  6E0D               	movwf	lcd_4bit_send_command@command^0,c
  3475   0018E6  EC1A  F010         	call	_lcd_4bit_send_command	;wreg free
  3476   0018EA                     
  3477                           ;ECU_Layer/Chr_LCD/ecu_chr_lcd.c: 36:         _delay((unsigned long)((150)*(4000000UL/40
      +                          00000.0)));
  3478   0018EA  0E32               	movlw	50
  3479   0018EC                     u2767:
  3480   0018EC  2EE8               	decfsz	wreg,f,c
  3481   0018EE  D7FE               	bra	u2767
  3482   0018F0  C00F  F00C         	movff	lcd_4bit_initialize@lcd,lcd_4bit_send_command@lcd
  3483   0018F4  0E38               	movlw	56
  3484   0018F6  6E0D               	movwf	lcd_4bit_send_command@command^0,c
  3485   0018F8  EC1A  F010         	call	_lcd_4bit_send_command	;wreg free
  3486   0018FC  C00F  F00C         	movff	lcd_4bit_initialize@lcd,lcd_4bit_send_command@lcd
  3487   001900  0E01               	movlw	1
  3488   001902  6E0D               	movwf	lcd_4bit_send_command@command^0,c
  3489   001904  EC1A  F010         	call	_lcd_4bit_send_command	;wreg free
  3490   001908  C00F  F00C         	movff	lcd_4bit_initialize@lcd,lcd_4bit_send_command@lcd
  3491   00190C  0E02               	movlw	2
  3492   00190E  6E0D               	movwf	lcd_4bit_send_command@command^0,c
  3493   001910  EC1A  F010         	call	_lcd_4bit_send_command	;wreg free
  3494   001914  C00F  F00C         	movff	lcd_4bit_initialize@lcd,lcd_4bit_send_command@lcd
  3495   001918  0E06               	movlw	6
  3496   00191A  6E0D               	movwf	lcd_4bit_send_command@command^0,c
  3497   00191C  EC1A  F010         	call	_lcd_4bit_send_command	;wreg free
  3498   001920  C00F  F00C         	movff	lcd_4bit_initialize@lcd,lcd_4bit_send_command@lcd
  3499   001924  0E0C               	movlw	12
  3500   001926  6E0D               	movwf	lcd_4bit_send_command@command^0,c
  3501   001928  EC1A  F010         	call	_lcd_4bit_send_command	;wreg free
  3502   00192C  C00F  F00C         	movff	lcd_4bit_initialize@lcd,lcd_4bit_send_command@lcd
  3503   001930  0E28               	movlw	40
  3504   001932  6E0D               	movwf	lcd_4bit_send_command@command^0,c
  3505   001934  EC1A  F010         	call	_lcd_4bit_send_command	;wreg free
  3506   001938                     
  3507                           ;ECU_Layer/Chr_LCD/ecu_chr_lcd.c: 43:         ret = lcd_4bit_send_command(lcd, 0x80);
  3508   001938  C00F  F00C         	movff	lcd_4bit_initialize@lcd,lcd_4bit_send_command@lcd
  3509   00193C  0E80               	movlw	128
  3510   00193E  6E0D               	movwf	lcd_4bit_send_command@command^0,c
  3511   001940  EC1A  F010         	call	_lcd_4bit_send_command	;wreg free
  3512   001944  6E12               	movwf	lcd_4bit_initialize@ret^0,c
  3513   001946                     l2748:
  3514                           
  3515                           ;ECU_Layer/Chr_LCD/ecu_chr_lcd.c: 45:     return ret;
  3516   001946  5012               	movf	lcd_4bit_initialize@ret^0,w,c
  3517   001948  0012               	return		;funcret
  3518   00194A                     __end_of_lcd_4bit_initialize:
  3519                           	callstack 0
  3520                           
  3521 ;; *************** function _lcd_4bit_send_command *****************
  3522 ;; Defined at:
  3523 ;;		line 48 in file "ECU_Layer/Chr_LCD/ecu_chr_lcd.c"
  3524 ;; Parameters:    Size  Location     Type
  3525 ;;  lcd             1   11[COMRAM] PTR const struct .
  3526 ;;		 -> lcd_1(6), 
  3527 ;;  command         1   12[COMRAM] unsigned char 
  3528 ;; Auto vars:     Size  Location     Type
  3529 ;;  ret             1   13[COMRAM] unsigned char 
  3530 ;; Return value:  Size  Location     Type
  3531 ;;                  1    wreg      unsigned char 
  3532 ;; Registers used:
  3533 ;;		wreg, fsr2l, fsr2h, status,2, status,0, prodl, prodh, cstack
  3534 ;; Tracked objects:
  3535 ;;		On entry : 0/0
  3536 ;;		On exit  : 0/0
  3537 ;;		Unchanged: 0/0
  3538 ;; Data sizes:     COMRAM   BANK0   BANK1   BANK2   BANK3   BANK4   BANK5   BANK6   BANK7   BANK8   BANK9  BANK10  BANK1
      +1  BANK12  BANK13  BANK14  BANK15
  3539 ;;      Params:         2       0       0       0       0       0       0       0       0       0       0       0       
      +0       0       0       0       0
  3540 ;;      Locals:         1       0       0       0       0       0       0       0       0       0       0       0       
      +0       0       0       0       0
  3541 ;;      Temps:          0       0       0       0       0       0       0       0       0       0       0       0       
      +0       0       0       0       0
  3542 ;;      Totals:         3       0       0       0       0       0       0       0       0       0       0       0       
      +0       0       0       0       0
  3543 ;;Total ram usage:        3 bytes
  3544 ;; Hardware stack levels used: 1
  3545 ;; Hardware stack levels required when called: 2
  3546 ;; This function calls:
  3547 ;;		_gpio_pin_write_logic
  3548 ;;		_lcd_4bits_send_enable_signal
  3549 ;;		_lcd_send_4bits
  3550 ;; This function is called by:
  3551 ;;		_lcd_4bit_initialize
  3552 ;;		_lcd_4bits_set_cursor
  3553 ;;		_main
  3554 ;;		_lcd_4bit_send_custom_char
  3555 ;; This function uses a non-reentrant model
  3556 ;;
  3557                           
  3558                           	psect	text21
  3559   002034                     __ptext21:
  3560                           	callstack 0
  3561   002034                     _lcd_4bit_send_command:
  3562                           	callstack 26
  3563   002034                     
  3564                           ;ECU_Layer/Chr_LCD/ecu_chr_lcd.c: 50:      if(((void*)0) == lcd)
  3565   002034  500C               	movf	lcd_4bit_send_command@lcd^0,w,c
  3566   002036  A4D8               	btfss	status,2,c
  3567   002038  EF20  F010         	goto	u1741
  3568   00203C  EF22  F010         	goto	u1740
  3569   002040                     u1741:
  3570   002040  EF26  F010         	goto	l2652
  3571   002044                     u1740:
  3572   002044                     
  3573                           ;ECU_Layer/Chr_LCD/ecu_chr_lcd.c: 51:      {;ECU_Layer/Chr_LCD/ecu_chr_lcd.c: 52:       
      +                            ret = (Std_ReturnType)0x00 ;
  3574   002044  0E00               	movlw	0
  3575   002046  6E0E               	movwf	lcd_4bit_send_command@ret^0,c
  3576                           
  3577                           ;ECU_Layer/Chr_LCD/ecu_chr_lcd.c: 53:      }
  3578   002048  EF42  F010         	goto	l2654
  3579   00204C                     l2652:
  3580                           
  3581                           ;ECU_Layer/Chr_LCD/ecu_chr_lcd.c: 55:      {;ECU_Layer/Chr_LCD/ecu_chr_lcd.c: 56:       
      +                             ret = gpio_pin_write_logic(&(lcd->lcd_rs), GPIO_LOW);
  3582   00204C  C00C  F001         	movff	lcd_4bit_send_command@lcd,gpio_pin_write_logic@_pin_config
  3583   002050  0E00               	movlw	0
  3584   002052  6E02               	movwf	gpio_pin_write_logic@logic^0,c
  3585   002054  EC2B  F00B         	call	_gpio_pin_write_logic	;wreg free
  3586   002058  6E0E               	movwf	lcd_4bit_send_command@ret^0,c
  3587                           
  3588                           ;ECU_Layer/Chr_LCD/ecu_chr_lcd.c: 57:          lcd_send_4bits(lcd, command >> 4);
  3589   00205A  C00C  F009         	movff	lcd_4bit_send_command@lcd,lcd_send_4bits@lcd
  3590   00205E  380D               	swapf	lcd_4bit_send_command@command^0,w,c
  3591   002060  0B0F               	andlw	15
  3592   002062  6E0A               	movwf	lcd_send_4bits@_data_command^0,c
  3593   002064  EC29  F00F         	call	_lcd_send_4bits	;wreg free
  3594                           
  3595                           ;ECU_Layer/Chr_LCD/ecu_chr_lcd.c: 58:          lcd_4bits_send_enable_signal(lcd);
  3596   002068  C00C  F009         	movff	lcd_4bit_send_command@lcd,lcd_4bits_send_enable_signal@lcd
  3597   00206C  EC89  F010         	call	_lcd_4bits_send_enable_signal	;wreg free
  3598                           
  3599                           ;ECU_Layer/Chr_LCD/ecu_chr_lcd.c: 59:          lcd_send_4bits(lcd, command);
  3600   002070  C00C  F009         	movff	lcd_4bit_send_command@lcd,lcd_send_4bits@lcd
  3601   002074  C00D  F00A         	movff	lcd_4bit_send_command@command,lcd_send_4bits@_data_command
  3602   002078  EC29  F00F         	call	_lcd_send_4bits	;wreg free
  3603                           
  3604                           ;ECU_Layer/Chr_LCD/ecu_chr_lcd.c: 60:          lcd_4bits_send_enable_signal(lcd);
  3605   00207C  C00C  F009         	movff	lcd_4bit_send_command@lcd,lcd_4bits_send_enable_signal@lcd
  3606   002080  EC89  F010         	call	_lcd_4bits_send_enable_signal	;wreg free
  3607   002084                     l2654:
  3608                           
  3609                           ;ECU_Layer/Chr_LCD/ecu_chr_lcd.c: 62:     return ret;
  3610   002084  500E               	movf	lcd_4bit_send_command@ret^0,w,c
  3611   002086  0012               	return		;funcret
  3612   002088                     __end_of_lcd_4bit_send_command:
  3613                           	callstack 0
  3614                           
  3615 ;; *************** function _lcd_send_4bits *****************
  3616 ;; Defined at:
  3617 ;;		line 327 in file "ECU_Layer/Chr_LCD/ecu_chr_lcd.c"
  3618 ;; Parameters:    Size  Location     Type
  3619 ;;  lcd             1    8[COMRAM] PTR const struct .
  3620 ;;		 -> lcd_1(6), 
  3621 ;;  _data_comman    1    9[COMRAM] unsigned char 
  3622 ;; Auto vars:     Size  Location     Type
  3623 ;;  ret             1   10[COMRAM] unsigned char 
  3624 ;; Return value:  Size  Location     Type
  3625 ;;                  1    wreg      unsigned char 
  3626 ;; Registers used:
  3627 ;;		wreg, fsr2l, fsr2h, status,2, status,0, prodl, prodh, cstack
  3628 ;; Tracked objects:
  3629 ;;		On entry : 0/0
  3630 ;;		On exit  : 0/0
  3631 ;;		Unchanged: 0/0
  3632 ;; Data sizes:     COMRAM   BANK0   BANK1   BANK2   BANK3   BANK4   BANK5   BANK6   BANK7   BANK8   BANK9  BANK10  BANK1
      +1  BANK12  BANK13  BANK14  BANK15
  3633 ;;      Params:         2       0       0       0       0       0       0       0       0       0       0       0       
      +0       0       0       0       0
  3634 ;;      Locals:         1       0       0       0       0       0       0       0       0       0       0       0       
      +0       0       0       0       0
  3635 ;;      Temps:          0       0       0       0       0       0       0       0       0       0       0       0       
      +0       0       0       0       0
  3636 ;;      Totals:         3       0       0       0       0       0       0       0       0       0       0       0       
      +0       0       0       0       0
  3637 ;;Total ram usage:        3 bytes
  3638 ;; Hardware stack levels used: 1
  3639 ;; Hardware stack levels required when called: 1
  3640 ;; This function calls:
  3641 ;;		_gpio_pin_write_logic
  3642 ;; This function is called by:
  3643 ;;		_lcd_4bit_send_command
  3644 ;;		_lcd_4bit_send_char_data
  3645 ;; This function uses a non-reentrant model
  3646 ;;
  3647                           
  3648                           	psect	text22
  3649   001E52                     __ptext22:
  3650                           	callstack 0
  3651   001E52                     _lcd_send_4bits:
  3652                           	callstack 26
  3653   001E52                     
  3654                           ;ECU_Layer/Chr_LCD/ecu_chr_lcd.c: 329:     if(((void*)0) == lcd)
  3655   001E52  5009               	movf	lcd_send_4bits@lcd^0,w,c
  3656   001E54  A4D8               	btfss	status,2,c
  3657   001E56  EF2F  F00F         	goto	u1531
  3658   001E5A  EF31  F00F         	goto	u1530
  3659   001E5E                     u1531:
  3660   001E5E  EF33  F00F         	goto	l2522
  3661   001E62                     u1530:
  3662   001E62                     
  3663                           ;ECU_Layer/Chr_LCD/ecu_chr_lcd.c: 332:     }
  3664   001E62  EF5C  F00F         	goto	l178
  3665   001E66                     l2522:
  3666                           
  3667                           ;ECU_Layer/Chr_LCD/ecu_chr_lcd.c: 334:     {;ECU_Layer/Chr_LCD/ecu_chr_lcd.c: 335:      
      +                             ret = gpio_pin_write_logic(&(lcd->lcd_data[0]), (_data_command >> 0) & (uint8)0x01 );
  3668   001E66  5009               	movf	lcd_send_4bits@lcd^0,w,c
  3669   001E68  0F02               	addlw	2
  3670   001E6A  6E01               	movwf	gpio_pin_write_logic@_pin_config^0,c
  3671   001E6C  500A               	movf	lcd_send_4bits@_data_command^0,w,c
  3672   001E6E  0B01               	andlw	1
  3673   001E70  6E02               	movwf	gpio_pin_write_logic@logic^0,c
  3674   001E72  EC2B  F00B         	call	_gpio_pin_write_logic	;wreg free
  3675   001E76  6E0B               	movwf	lcd_send_4bits@ret^0,c
  3676                           
  3677                           ;ECU_Layer/Chr_LCD/ecu_chr_lcd.c: 336:         ret = gpio_pin_write_logic(&(lcd->lcd_dat
      +                          a[1]), (_data_command >> 1) & (uint8)0x01 );
  3678   001E78  5009               	movf	lcd_send_4bits@lcd^0,w,c
  3679   001E7A  0F03               	addlw	3
  3680   001E7C  6E01               	movwf	gpio_pin_write_logic@_pin_config^0,c
  3681   001E7E  90D8               	bcf	status,0,c
  3682   001E80  300A               	rrcf	lcd_send_4bits@_data_command^0,w,c
  3683   001E82  0B01               	andlw	1
  3684   001E84  6E02               	movwf	gpio_pin_write_logic@logic^0,c
  3685   001E86  EC2B  F00B         	call	_gpio_pin_write_logic	;wreg free
  3686   001E8A  6E0B               	movwf	lcd_send_4bits@ret^0,c
  3687                           
  3688                           ;ECU_Layer/Chr_LCD/ecu_chr_lcd.c: 337:         ret = gpio_pin_write_logic(&(lcd->lcd_dat
      +                          a[2]), (_data_command >> 2) & (uint8)0x01 );
  3689   001E8C  5009               	movf	lcd_send_4bits@lcd^0,w,c
  3690   001E8E  0F04               	addlw	4
  3691   001E90  6E01               	movwf	gpio_pin_write_logic@_pin_config^0,c
  3692   001E92  400A               	rrncf	lcd_send_4bits@_data_command^0,w,c
  3693   001E94  42E8               	rrncf	wreg,f,c
  3694   001E96  0B3F               	andlw	63
  3695   001E98  0B01               	andlw	1
  3696   001E9A  6E02               	movwf	gpio_pin_write_logic@logic^0,c
  3697   001E9C  EC2B  F00B         	call	_gpio_pin_write_logic	;wreg free
  3698   001EA0  6E0B               	movwf	lcd_send_4bits@ret^0,c
  3699                           
  3700                           ;ECU_Layer/Chr_LCD/ecu_chr_lcd.c: 338:         ret = gpio_pin_write_logic(&(lcd->lcd_dat
      +                          a[3]), (_data_command >> 3) & (uint8)0x01 );
  3701   001EA2  5009               	movf	lcd_send_4bits@lcd^0,w,c
  3702   001EA4  0F05               	addlw	5
  3703   001EA6  6E01               	movwf	gpio_pin_write_logic@_pin_config^0,c
  3704   001EA8  380A               	swapf	lcd_send_4bits@_data_command^0,w,c
  3705   001EAA  46E8               	rlncf	wreg,f,c
  3706   001EAC  0B1F               	andlw	31
  3707   001EAE  0B01               	andlw	1
  3708   001EB0  6E02               	movwf	gpio_pin_write_logic@logic^0,c
  3709   001EB2  EC2B  F00B         	call	_gpio_pin_write_logic	;wreg free
  3710   001EB6  6E0B               	movwf	lcd_send_4bits@ret^0,c
  3711   001EB8                     l178:
  3712   001EB8  0012               	return		;funcret
  3713   001EBA                     __end_of_lcd_send_4bits:
  3714                           	callstack 0
  3715                           
  3716 ;; *************** function _lcd_4bits_send_enable_signal *****************
  3717 ;; Defined at:
  3718 ;;		line 343 in file "ECU_Layer/Chr_LCD/ecu_chr_lcd.c"
  3719 ;; Parameters:    Size  Location     Type
  3720 ;;  lcd             1    8[COMRAM] PTR const struct .
  3721 ;;		 -> lcd_1(6), 
  3722 ;; Auto vars:     Size  Location     Type
  3723 ;;  ret             1    0        unsigned char 
  3724 ;; Return value:  Size  Location     Type
  3725 ;;                  1    wreg      unsigned char 
  3726 ;; Registers used:
  3727 ;;		wreg, fsr2l, fsr2h, status,2, status,0, prodl, prodh, cstack
  3728 ;; Tracked objects:
  3729 ;;		On entry : 0/0
  3730 ;;		On exit  : 0/0
  3731 ;;		Unchanged: 0/0
  3732 ;; Data sizes:     COMRAM   BANK0   BANK1   BANK2   BANK3   BANK4   BANK5   BANK6   BANK7   BANK8   BANK9  BANK10  BANK1
      +1  BANK12  BANK13  BANK14  BANK15
  3733 ;;      Params:         1       0       0       0       0       0       0       0       0       0       0       0       
      +0       0       0       0       0
  3734 ;;      Locals:         0       0       0       0       0       0       0       0       0       0       0       0       
      +0       0       0       0       0
  3735 ;;      Temps:          1       0       0       0       0       0       0       0       0       0       0       0       
      +0       0       0       0       0
  3736 ;;      Totals:         2       0       0       0       0       0       0       0       0       0       0       0       
      +0       0       0       0       0
  3737 ;;Total ram usage:        2 bytes
  3738 ;; Hardware stack levels used: 1
  3739 ;; Hardware stack levels required when called: 1
  3740 ;; This function calls:
  3741 ;;		_gpio_pin_write_logic
  3742 ;; This function is called by:
  3743 ;;		_lcd_4bit_send_command
  3744 ;;		_lcd_4bit_send_char_data
  3745 ;; This function uses a non-reentrant model
  3746 ;;
  3747                           
  3748                           	psect	text23
  3749   002112                     __ptext23:
  3750                           	callstack 0
  3751   002112                     _lcd_4bits_send_enable_signal:
  3752                           	callstack 26
  3753   002112                     
  3754                           ;ECU_Layer/Chr_LCD/ecu_chr_lcd.c: 345:     if(((void*)0) == lcd)
  3755   002112  5009               	movf	lcd_4bits_send_enable_signal@lcd^0,w,c
  3756   002114  A4D8               	btfss	status,2,c
  3757   002116  EF8F  F010         	goto	u1541
  3758   00211A  EF91  F010         	goto	u1540
  3759   00211E                     u1541:
  3760   00211E  EF93  F010         	goto	l2530
  3761   002122                     u1540:
  3762   002122                     
  3763                           ;ECU_Layer/Chr_LCD/ecu_chr_lcd.c: 348:     }
  3764   002122  EFA7  F010         	goto	l183
  3765   002126                     l2530:
  3766   002126  2809               	incf	lcd_4bits_send_enable_signal@lcd^0,w,c
  3767   002128  6E01               	movwf	gpio_pin_write_logic@_pin_config^0,c
  3768   00212A  0E01               	movlw	1
  3769   00212C  6E02               	movwf	gpio_pin_write_logic@logic^0,c
  3770   00212E  EC2B  F00B         	call	_gpio_pin_write_logic	;wreg free
  3771   002132                     
  3772                           ;ECU_Layer/Chr_LCD/ecu_chr_lcd.c: 352:         _delay((unsigned long)((5)*(4000000UL/400
      +                          0.0)));
  3773   002132  0E07               	movlw	7
  3774   002134  6E0A               	movwf	??_lcd_4bits_send_enable_signal^0,c
  3775   002136  0E7D               	movlw	125
  3776   002138                     u2777:
  3777   002138  2EE8               	decfsz	wreg,f,c
  3778   00213A  D7FE               	bra	u2777
  3779   00213C  2E0A               	decfsz	??_lcd_4bits_send_enable_signal^0,f,c
  3780   00213E  D7FC               	bra	u2777
  3781   002140  0000               	nop	
  3782   002142  2809               	incf	lcd_4bits_send_enable_signal@lcd^0,w,c
  3783   002144  6E01               	movwf	gpio_pin_write_logic@_pin_config^0,c
  3784   002146  0E00               	movlw	0
  3785   002148  6E02               	movwf	gpio_pin_write_logic@logic^0,c
  3786   00214A  EC2B  F00B         	call	_gpio_pin_write_logic	;wreg free
  3787   00214E                     l183:
  3788   00214E  0012               	return		;funcret
  3789   002150                     __end_of_lcd_4bits_send_enable_signal:
  3790                           	callstack 0
  3791                           
  3792 ;; *************** function _keypad_initialize *****************
  3793 ;; Defined at:
  3794 ;;		line 24 in file "ECU_Layer/KeyPad/ecu_keypad.c"
  3795 ;; Parameters:    Size  Location     Type
  3796 ;;  _keypad_obj     1   11[COMRAM] PTR const struct .
  3797 ;;		 -> keypad_1(8), 
  3798 ;; Auto vars:     Size  Location     Type
  3799 ;;  coloumns_cou    1   14[COMRAM] unsigned char 
  3800 ;;  rows_counter    1   13[COMRAM] unsigned char 
  3801 ;;  ret             1   12[COMRAM] unsigned char 
  3802 ;; Return value:  Size  Location     Type
  3803 ;;                  1    wreg      unsigned char 
  3804 ;; Registers used:
  3805 ;;		wreg, fsr2l, fsr2h, status,2, status,0, prodl, prodh, cstack
  3806 ;; Tracked objects:
  3807 ;;		On entry : 0/0
  3808 ;;		On exit  : 0/0
  3809 ;;		Unchanged: 0/0
  3810 ;; Data sizes:     COMRAM   BANK0   BANK1   BANK2   BANK3   BANK4   BANK5   BANK6   BANK7   BANK8   BANK9  BANK10  BANK1
      +1  BANK12  BANK13  BANK14  BANK15
  3811 ;;      Params:         1       0       0       0       0       0       0       0       0       0       0       0       
      +0       0       0       0       0
  3812 ;;      Locals:         3       0       0       0       0       0       0       0       0       0       0       0       
      +0       0       0       0       0
  3813 ;;      Temps:          0       0       0       0       0       0       0       0       0       0       0       0       
      +0       0       0       0       0
  3814 ;;      Totals:         4       0       0       0       0       0       0       0       0       0       0       0       
      +0       0       0       0       0
  3815 ;;Total ram usage:        4 bytes
  3816 ;; Hardware stack levels used: 1
  3817 ;; Hardware stack levels required when called: 2
  3818 ;; This function calls:
  3819 ;;		_gpio_pin_intialize
  3820 ;; This function is called by:
  3821 ;;		_ecu_layer_intialize
  3822 ;; This function uses a non-reentrant model
  3823 ;;
  3824                           
  3825                           	psect	text24
  3826   001EBA                     __ptext24:
  3827                           	callstack 0
  3828   001EBA                     _keypad_initialize:
  3829                           	callstack 26
  3830   001EBA                     
  3831                           ;ECU_Layer/KeyPad/ecu_keypad.c: 25:      Std_ReturnType ret = (Std_ReturnType)0x01;
  3832   001EBA  0E01               	movlw	1
  3833   001EBC  6E0D               	movwf	keypad_initialize@ret^0,c
  3834   001EBE  0E00               	movlw	0
  3835   001EC0  6E0F               	movwf	keypad_initialize@coloumns_counter^0,c
  3836                           
  3837                           ;ECU_Layer/KeyPad/ecu_keypad.c: 27:      if(((void*)0) == _keypad_obj)
  3838   001EC2  500C               	movf	keypad_initialize@_keypad_obj^0,w,c
  3839   001EC4  A4D8               	btfss	status,2,c
  3840   001EC6  EF67  F00F         	goto	u1871
  3841   001ECA  EF69  F00F         	goto	u1870
  3842   001ECE                     u1871:
  3843   001ECE  EF6D  F00F         	goto	l2756
  3844   001ED2                     u1870:
  3845   001ED2                     
  3846                           ;ECU_Layer/KeyPad/ecu_keypad.c: 28:      {;ECU_Layer/KeyPad/ecu_keypad.c: 29:         re
      +                          t = (Std_ReturnType)0x00 ;
  3847   001ED2  0E00               	movlw	0
  3848   001ED4  6E0D               	movwf	keypad_initialize@ret^0,c
  3849                           
  3850                           ;ECU_Layer/KeyPad/ecu_keypad.c: 30:      }
  3851   001ED6  EF8E  F00F         	goto	l2780
  3852   001EDA                     l2756:
  3853                           
  3854                           ;ECU_Layer/KeyPad/ecu_keypad.c: 32:      {;ECU_Layer/KeyPad/ecu_keypad.c: 33:          f
      +                          or(rows_counter = 0;rows_counter < 4;rows_counter++)
  3855   001EDA  0E00               	movlw	0
  3856   001EDC  6E0E               	movwf	keypad_initialize@rows_counter^0,c
  3857   001EDE                     l2762:
  3858                           
  3859                           ;ECU_Layer/KeyPad/ecu_keypad.c: 34:          {;ECU_Layer/KeyPad/ecu_keypad.c: 35:       
      +                                  gpio_pin_intialize(&(_keypad_obj->keypad_row_pins[rows_counter]));
  3860   001EDE  500C               	movf	keypad_initialize@_keypad_obj^0,w,c
  3861   001EE0  240E               	addwf	keypad_initialize@rows_counter^0,w,c
  3862   001EE2  6E09               	movwf	gpio_pin_intialize@_pin_config^0,c
  3863   001EE4  ECC1  F00F         	call	_gpio_pin_intialize	;wreg free
  3864   001EE8                     
  3865                           ;ECU_Layer/KeyPad/ecu_keypad.c: 36:          }
  3866   001EE8  2A0E               	incf	keypad_initialize@rows_counter^0,f,c
  3867   001EEA  0E03               	movlw	3
  3868   001EEC  640E               	cpfsgt	keypad_initialize@rows_counter^0,c
  3869   001EEE  EF7B  F00F         	goto	u1881
  3870   001EF2  EF7D  F00F         	goto	u1880
  3871   001EF6                     u1881:
  3872   001EF6  EF6F  F00F         	goto	l2762
  3873   001EFA                     u1880:
  3874   001EFA                     
  3875                           ;ECU_Layer/KeyPad/ecu_keypad.c: 38:          for(coloumns_counter = 0;coloumns_counter <
      +                           4;coloumns_counter++)
  3876   001EFA  0E00               	movlw	0
  3877   001EFC  6E0F               	movwf	keypad_initialize@coloumns_counter^0,c
  3878   001EFE                     l2774:
  3879                           
  3880                           ;ECU_Layer/KeyPad/ecu_keypad.c: 39:          {;ECU_Layer/KeyPad/ecu_keypad.c: 40:       
      +                                  gpio_pin_intialize(&(_keypad_obj->keypad_colomns_pins[coloumns_counter]));
  3881   001EFE  500C               	movf	keypad_initialize@_keypad_obj^0,w,c
  3882   001F00  240F               	addwf	keypad_initialize@coloumns_counter^0,w,c
  3883   001F02  0F04               	addlw	4
  3884   001F04  6E09               	movwf	gpio_pin_intialize@_pin_config^0,c
  3885   001F06  ECC1  F00F         	call	_gpio_pin_intialize	;wreg free
  3886   001F0A                     
  3887                           ;ECU_Layer/KeyPad/ecu_keypad.c: 41:          }
  3888   001F0A  2A0F               	incf	keypad_initialize@coloumns_counter^0,f,c
  3889   001F0C  0E03               	movlw	3
  3890   001F0E  640F               	cpfsgt	keypad_initialize@coloumns_counter^0,c
  3891   001F10  EF8C  F00F         	goto	u1891
  3892   001F14  EF8E  F00F         	goto	u1890
  3893   001F18                     u1891:
  3894   001F18  EF7F  F00F         	goto	l2774
  3895   001F1C                     u1890:
  3896   001F1C                     l2780:
  3897                           
  3898                           ;ECU_Layer/KeyPad/ecu_keypad.c: 44:     return ret;
  3899   001F1C  500D               	movf	keypad_initialize@ret^0,w,c
  3900   001F1E  0012               	return		;funcret
  3901   001F20                     __end_of_keypad_initialize:
  3902                           	callstack 0
  3903                           
  3904 ;; *************** function _gpio_pin_intialize *****************
  3905 ;; Defined at:
  3906 ;;		line 156 in file "MCAL_Layer/GPIO/hal_gpio.c"
  3907 ;; Parameters:    Size  Location     Type
  3908 ;;  _pin_config     1    8[COMRAM] PTR const struct .
  3909 ;;		 -> keypad_1$keypad_colomns_pins(4), keypad_1$keypad_row_pins(4), keypad_1(8), lcd_1$lcd_data(4), 
  3910 ;;		 -> lcd_1(6), relay_initialize@pin_obj(1), led_initialize@pin_obj(1), 
  3911 ;; Auto vars:     Size  Location     Type
  3912 ;;  ret             1   10[COMRAM] unsigned char 
  3913 ;; Return value:  Size  Location     Type
  3914 ;;                  1    wreg      unsigned char 
  3915 ;; Registers used:
  3916 ;;		wreg, fsr2l, fsr2h, status,2, status,0, prodl, prodh, cstack
  3917 ;; Tracked objects:
  3918 ;;		On entry : 0/0
  3919 ;;		On exit  : 0/0
  3920 ;;		Unchanged: 0/0
  3921 ;; Data sizes:     COMRAM   BANK0   BANK1   BANK2   BANK3   BANK4   BANK5   BANK6   BANK7   BANK8   BANK9  BANK10  BANK1
      +1  BANK12  BANK13  BANK14  BANK15
  3922 ;;      Params:         1       0       0       0       0       0       0       0       0       0       0       0       
      +0       0       0       0       0
  3923 ;;      Locals:         1       0       0       0       0       0       0       0       0       0       0       0       
      +0       0       0       0       0
  3924 ;;      Temps:          1       0       0       0       0       0       0       0       0       0       0       0       
      +0       0       0       0       0
  3925 ;;      Totals:         3       0       0       0       0       0       0       0       0       0       0       0       
      +0       0       0       0       0
  3926 ;;Total ram usage:        3 bytes
  3927 ;; Hardware stack levels used: 1
  3928 ;; Hardware stack levels required when called: 1
  3929 ;; This function calls:
  3930 ;;		_gpio_pin_direction_intialize
  3931 ;;		_gpio_pin_write_logic
  3932 ;; This function is called by:
  3933 ;;		_lcd_4bit_initialize
  3934 ;;		_keypad_initialize
  3935 ;;		_seven_segment_initialize
  3936 ;;		_lcd_8bit_initialize
  3937 ;;		_dc_motor_initialize
  3938 ;;		_led_initialize
  3939 ;;		_relay_initialize
  3940 ;; This function uses a non-reentrant model
  3941 ;;
  3942                           
  3943                           	psect	text25
  3944   001F82                     __ptext25:
  3945                           	callstack 0
  3946   001F82                     _gpio_pin_intialize:
  3947                           	callstack 26
  3948   001F82                     
  3949                           ;MCAL_Layer/GPIO/hal_gpio.c: 157:     Std_ReturnType ret = (Std_ReturnType)0x01;
  3950   001F82  0E01               	movlw	1
  3951   001F84  6E0B               	movwf	gpio_pin_intialize@ret^0,c
  3952                           
  3953                           ;MCAL_Layer/GPIO/hal_gpio.c: 158:     if(((void*)0) == _pin_config || _pin_config->pin >
      +                           8 - 1)
  3954   001F86  5009               	movf	gpio_pin_intialize@_pin_config^0,w,c
  3955   001F88  B4D8               	btfsc	status,2,c
  3956   001F8A  EFC9  F00F         	goto	u1721
  3957   001F8E  EFCB  F00F         	goto	u1720
  3958   001F92                     u1721:
  3959   001F92  EFDB  F00F         	goto	l2640
  3960   001F96                     u1720:
  3961   001F96  5009               	movf	gpio_pin_intialize@_pin_config^0,w,c
  3962   001F98  6ED9               	movwf	fsr2l,c
  3963   001F9A  6ADA               	clrf	fsr2h,c
  3964   001F9C  30DF               	rrcf	223,w,c
  3965   001F9E  32E8               	rrcf	wreg,f,c
  3966   001FA0  32E8               	rrcf	wreg,f,c
  3967   001FA2  0B07               	andlw	7
  3968   001FA4  6E0A               	movwf	??_gpio_pin_intialize^0,c
  3969   001FA6  0E07               	movlw	7
  3970   001FA8  640A               	cpfsgt	??_gpio_pin_intialize^0,c
  3971   001FAA  EFD9  F00F         	goto	u1731
  3972   001FAE  EFDB  F00F         	goto	u1730
  3973   001FB2                     u1731:
  3974   001FB2  EFDF  F00F         	goto	l2642
  3975   001FB6                     u1730:
  3976   001FB6                     l2640:
  3977                           
  3978                           ;MCAL_Layer/GPIO/hal_gpio.c: 159:     {;MCAL_Layer/GPIO/hal_gpio.c: 160:         ret = (
      +                          Std_ReturnType)0x00 ;
  3979   001FB6  0E00               	movlw	0
  3980   001FB8  6E0B               	movwf	gpio_pin_intialize@ret^0,c
  3981                           
  3982                           ;MCAL_Layer/GPIO/hal_gpio.c: 161:     }
  3983   001FBA  EFEE  F00F         	goto	l2644
  3984   001FBE                     l2642:
  3985                           
  3986                           ;MCAL_Layer/GPIO/hal_gpio.c: 163:     {;MCAL_Layer/GPIO/hal_gpio.c: 164:         gpio_pi
      +                          n_direction_intialize(_pin_config) ;
  3987   001FBE  C009  F001         	movff	gpio_pin_intialize@_pin_config,gpio_pin_direction_intialize@_pin_config
  3988   001FC2  EC96  F00A         	call	_gpio_pin_direction_intialize	;wreg free
  3989                           
  3990                           ;MCAL_Layer/GPIO/hal_gpio.c: 165:         gpio_pin_write_logic(_pin_config, _pin_config-
      +                          >logic);
  3991   001FC6  C009  F001         	movff	gpio_pin_intialize@_pin_config,gpio_pin_write_logic@_pin_config
  3992   001FCA  5009               	movf	gpio_pin_intialize@_pin_config^0,w,c
  3993   001FCC  6ED9               	movwf	fsr2l,c
  3994   001FCE  6ADA               	clrf	fsr2h,c
  3995   001FD0  0E00               	movlw	0
  3996   001FD2  BEDF               	btfsc	indf2,7,c
  3997   001FD4  0E01               	movlw	1
  3998   001FD6  6E02               	movwf	gpio_pin_write_logic@logic^0,c
  3999   001FD8  EC2B  F00B         	call	_gpio_pin_write_logic	;wreg free
  4000   001FDC                     l2644:
  4001                           
  4002                           ;MCAL_Layer/GPIO/hal_gpio.c: 167:     return ret ;
  4003   001FDC  500B               	movf	gpio_pin_intialize@ret^0,w,c
  4004   001FDE  0012               	return		;funcret
  4005   001FE0                     __end_of_gpio_pin_intialize:
  4006                           	callstack 0
  4007                           
  4008 ;; *************** function _gpio_pin_write_logic *****************
  4009 ;; Defined at:
  4010 ;;		line 80 in file "MCAL_Layer/GPIO/hal_gpio.c"
  4011 ;; Parameters:    Size  Location     Type
  4012 ;;  _pin_config     1    0[COMRAM] PTR const struct .
  4013 ;;		 -> keypad_1$keypad_colomns_pins(4), keypad_1$keypad_row_pins(4), keypad_1(8), lcd_1$lcd_data(4), 
  4014 ;;		 -> lcd_1(6), relay_turn_off@pin_obj(1), relay_turn_on@pin_obj(1), relay_initialize@pin_obj(1), 
  4015 ;;		 -> led_turn_off@pin_obj(1), led_turn_on@pin_obj(1), led_initialize@pin_obj(1), 
  4016 ;;  logic           1    1[COMRAM] enum E2978
  4017 ;; Auto vars:     Size  Location     Type
  4018 ;;  ret             1    7[COMRAM] unsigned char 
  4019 ;; Return value:  Size  Location     Type
  4020 ;;                  1    wreg      unsigned char 
  4021 ;; Registers used:
  4022 ;;		wreg, fsr2l, fsr2h, status,2, status,0, prodl, prodh
  4023 ;; Tracked objects:
  4024 ;;		On entry : 0/0
  4025 ;;		On exit  : 0/0
  4026 ;;		Unchanged: 0/0
  4027 ;; Data sizes:     COMRAM   BANK0   BANK1   BANK2   BANK3   BANK4   BANK5   BANK6   BANK7   BANK8   BANK9  BANK10  BANK1
      +1  BANK12  BANK13  BANK14  BANK15
  4028 ;;      Params:         2       0       0       0       0       0       0       0       0       0       0       0       
      +0       0       0       0       0
  4029 ;;      Locals:         1       0       0       0       0       0       0       0       0       0       0       0       
      +0       0       0       0       0
  4030 ;;      Temps:          5       0       0       0       0       0       0       0       0       0       0       0       
      +0       0       0       0       0
  4031 ;;      Totals:         8       0       0       0       0       0       0       0       0       0       0       0       
      +0       0       0       0       0
  4032 ;;Total ram usage:        8 bytes
  4033 ;; Hardware stack levels used: 1
  4034 ;; This function calls:
  4035 ;;		Nothing
  4036 ;; This function is called by:
  4037 ;;		_lcd_4bit_send_command
  4038 ;;		_lcd_4bit_send_char_data
  4039 ;;		_lcd_send_4bits
  4040 ;;		_lcd_4bits_send_enable_signal
  4041 ;;		_keypad_get_value
  4042 ;;		_gpio_pin_intialize
  4043 ;;		_seven_segment_write_number
  4044 ;;		_lcd_8bit_send_command
  4045 ;;		_lcd_8bit_send_char_data
  4046 ;;		_lcd_8bits_send_enable_signal
  4047 ;;		_dc_motor_move_right
  4048 ;;		_dc_motor_move_left
  4049 ;;		_dc_motor_stop
  4050 ;;		_led_turn_on
  4051 ;;		_led_turn_off
  4052 ;;		_relay_turn_on
  4053 ;;		_relay_turn_off
  4054 ;; This function uses a non-reentrant model
  4055 ;;
  4056                           
  4057                           	psect	text26
  4058   001656                     __ptext26:
  4059                           	callstack 0
  4060   001656                     _gpio_pin_write_logic:
  4061                           	callstack 26
  4062   001656                     
  4063                           ;MCAL_Layer/GPIO/hal_gpio.c: 81:     Std_ReturnType ret = (Std_ReturnType)0x01;
  4064   001656  0E01               	movlw	1
  4065   001658  6E08               	movwf	gpio_pin_write_logic@ret^0,c
  4066                           
  4067                           ;MCAL_Layer/GPIO/hal_gpio.c: 82:      if(((void*)0) == _pin_config || _pin_config->pin >
      +                           8 - 1)
  4068   00165A  5001               	movf	gpio_pin_write_logic@_pin_config^0,w,c
  4069   00165C  B4D8               	btfsc	status,2,c
  4070   00165E  EF33  F00B         	goto	u1431
  4071   001662  EF35  F00B         	goto	u1430
  4072   001666                     u1431:
  4073   001666  EF45  F00B         	goto	l2478
  4074   00166A                     u1430:
  4075   00166A  5001               	movf	gpio_pin_write_logic@_pin_config^0,w,c
  4076   00166C  6ED9               	movwf	fsr2l,c
  4077   00166E  6ADA               	clrf	fsr2h,c
  4078   001670  30DF               	rrcf	223,w,c
  4079   001672  32E8               	rrcf	wreg,f,c
  4080   001674  32E8               	rrcf	wreg,f,c
  4081   001676  0B07               	andlw	7
  4082   001678  6E03               	movwf	??_gpio_pin_write_logic^0,c
  4083   00167A  0E07               	movlw	7
  4084   00167C  6403               	cpfsgt	??_gpio_pin_write_logic^0,c
  4085   00167E  EF43  F00B         	goto	u1441
  4086   001682  EF45  F00B         	goto	u1440
  4087   001686                     u1441:
  4088   001686  EF9C  F00B         	goto	l2486
  4089   00168A                     u1440:
  4090   00168A                     l2478:
  4091                           
  4092                           ;MCAL_Layer/GPIO/hal_gpio.c: 83:     {;MCAL_Layer/GPIO/hal_gpio.c: 84:         ret = (St
      +                          d_ReturnType)0x00 ;
  4093   00168A  0E00               	movlw	0
  4094   00168C  6E08               	movwf	gpio_pin_write_logic@ret^0,c
  4095                           
  4096                           ;MCAL_Layer/GPIO/hal_gpio.c: 85:     }
  4097   00168E  EFB1  F00B         	goto	l2488
  4098   001692                     l2480:
  4099                           
  4100                           ;MCAL_Layer/GPIO/hal_gpio.c: 90:                (*lat_registers[_pin_config->port] &= ~(
      +                          (uint8) 1 << _pin_config->pin)) ;
  4101   001692  5001               	movf	gpio_pin_write_logic@_pin_config^0,w,c
  4102   001694  6ED9               	movwf	fsr2l,c
  4103   001696  6ADA               	clrf	fsr2h,c
  4104   001698  30DF               	rrcf	223,w,c
  4105   00169A  32E8               	rrcf	wreg,f,c
  4106   00169C  32E8               	rrcf	wreg,f,c
  4107   00169E  0B07               	andlw	7
  4108   0016A0  6E03               	movwf	??_gpio_pin_write_logic^0,c
  4109   0016A2  0E01               	movlw	1
  4110   0016A4  6E04               	movwf	(??_gpio_pin_write_logic+1)^0,c
  4111   0016A6  2A03               	incf	??_gpio_pin_write_logic^0,f,c
  4112   0016A8  EF58  F00B         	goto	u1454
  4113   0016AC                     u1455:
  4114   0016AC  90D8               	bcf	status,0,c
  4115   0016AE  3604               	rlcf	(??_gpio_pin_write_logic+1)^0,f,c
  4116   0016B0                     u1454:
  4117   0016B0  2E03               	decfsz	??_gpio_pin_write_logic^0,f,c
  4118   0016B2  EF56  F00B         	goto	u1455
  4119   0016B6  5004               	movf	(??_gpio_pin_write_logic+1)^0,w,c
  4120   0016B8  0AFF               	xorlw	255
  4121   0016BA  6E05               	movwf	(??_gpio_pin_write_logic+2)^0,c
  4122   0016BC  5001               	movf	gpio_pin_write_logic@_pin_config^0,w,c
  4123   0016BE  6ED9               	movwf	fsr2l,c
  4124   0016C0  6ADA               	clrf	fsr2h,c
  4125   0016C2  50DF               	movf	223,w,c
  4126   0016C4  0B07               	andlw	7
  4127   0016C6  0D02               	mullw	2
  4128   0016C8  50F3               	movf	243,w,c
  4129   0016CA  0F52               	addlw	low _lat_registers
  4130   0016CC  6ED9               	movwf	fsr2l,c
  4131   0016CE  6ADA               	clrf	fsr2h,c
  4132   0016D0  CFDE F006          	movff	postinc2,??_gpio_pin_write_logic+3
  4133   0016D4  CFDD F007          	movff	postdec2,??_gpio_pin_write_logic+4
  4134   0016D8  C006  FFD9         	movff	??_gpio_pin_write_logic+3,fsr2l
  4135   0016DC  C007  FFDA         	movff	??_gpio_pin_write_logic+4,fsr2h
  4136   0016E0  5005               	movf	(??_gpio_pin_write_logic+2)^0,w,c
  4137   0016E2  16DF               	andwf	indf2,f,c
  4138                           
  4139                           ;MCAL_Layer/GPIO/hal_gpio.c: 91:                break;
  4140   0016E4  EFB1  F00B         	goto	l2488
  4141   0016E8                     l2482:
  4142                           
  4143                           ;MCAL_Layer/GPIO/hal_gpio.c: 93:                (*lat_registers[_pin_config->port] |= ((
      +                          uint8) 1 << _pin_config->pin)) ;
  4144   0016E8  5001               	movf	gpio_pin_write_logic@_pin_config^0,w,c
  4145   0016EA  6ED9               	movwf	fsr2l,c
  4146   0016EC  6ADA               	clrf	fsr2h,c
  4147   0016EE  30DF               	rrcf	223,w,c
  4148   0016F0  32E8               	rrcf	wreg,f,c
  4149   0016F2  32E8               	rrcf	wreg,f,c
  4150   0016F4  0B07               	andlw	7
  4151   0016F6  6E03               	movwf	??_gpio_pin_write_logic^0,c
  4152   0016F8  0E01               	movlw	1
  4153   0016FA  6E04               	movwf	(??_gpio_pin_write_logic+1)^0,c
  4154   0016FC  2A03               	incf	??_gpio_pin_write_logic^0,f,c
  4155   0016FE  EF83  F00B         	goto	u1464
  4156   001702                     u1465:
  4157   001702  90D8               	bcf	status,0,c
  4158   001704  3604               	rlcf	(??_gpio_pin_write_logic+1)^0,f,c
  4159   001706                     u1464:
  4160   001706  2E03               	decfsz	??_gpio_pin_write_logic^0,f,c
  4161   001708  EF81  F00B         	goto	u1465
  4162   00170C  5001               	movf	gpio_pin_write_logic@_pin_config^0,w,c
  4163   00170E  6ED9               	movwf	fsr2l,c
  4164   001710  6ADA               	clrf	fsr2h,c
  4165   001712  50DF               	movf	223,w,c
  4166   001714  0B07               	andlw	7
  4167   001716  0D02               	mullw	2
  4168   001718  50F3               	movf	243,w,c
  4169   00171A  0F52               	addlw	low _lat_registers
  4170   00171C  6ED9               	movwf	fsr2l,c
  4171   00171E  6ADA               	clrf	fsr2h,c
  4172   001720  CFDE F005          	movff	postinc2,??_gpio_pin_write_logic+2
  4173   001724  CFDD F006          	movff	postdec2,??_gpio_pin_write_logic+3
  4174   001728  C005  FFD9         	movff	??_gpio_pin_write_logic+2,fsr2l
  4175   00172C  C006  FFDA         	movff	??_gpio_pin_write_logic+3,fsr2h
  4176   001730  5004               	movf	(??_gpio_pin_write_logic+1)^0,w,c
  4177   001732  12DF               	iorwf	indf2,f,c
  4178                           
  4179                           ;MCAL_Layer/GPIO/hal_gpio.c: 94:                break;
  4180   001734  EFB1  F00B         	goto	l2488
  4181   001738                     l2486:
  4182   001738  5002               	movf	gpio_pin_write_logic@logic^0,w,c
  4183   00173A  6E03               	movwf	??_gpio_pin_write_logic^0,c
  4184   00173C  6A04               	clrf	(??_gpio_pin_write_logic+1)^0,c
  4185                           
  4186                           ; Switch on 2 bytes has been partitioned into a top level switch of size 1, and 1 sub-sw
      +                          itches
  4187                           ; Switch size 1, requested type "simple"
  4188                           ; Number of cases is 1, Range of values is 0 to 0
  4189                           ; switch strategies available:
  4190                           ; Name         Instructions Cycles
  4191                           ; simple_byte            4     3 (average)
  4192                           ;	Chosen strategy is simple_byte
  4193   00173E  5004               	movf	(??_gpio_pin_write_logic+1)^0,w,c
  4194   001740  0A00               	xorlw	0	; case 0
  4195   001742  B4D8               	btfsc	status,2,c
  4196   001744  EFA6  F00B         	goto	l3634
  4197   001748  EF45  F00B         	goto	l2478
  4198   00174C                     l3634:
  4199                           
  4200                           ; Switch size 1, requested type "simple"
  4201                           ; Number of cases is 2, Range of values is 0 to 1
  4202                           ; switch strategies available:
  4203                           ; Name         Instructions Cycles
  4204                           ; simple_byte            7     4 (average)
  4205                           ;	Chosen strategy is simple_byte
  4206   00174C  5003               	movf	??_gpio_pin_write_logic^0,w,c
  4207   00174E  0A00               	xorlw	0	; case 0
  4208   001750  B4D8               	btfsc	status,2,c
  4209   001752  EF49  F00B         	goto	l2480
  4210   001756  0A01               	xorlw	1	; case 1
  4211   001758  B4D8               	btfsc	status,2,c
  4212   00175A  EF74  F00B         	goto	l2482
  4213   00175E  EF45  F00B         	goto	l2478
  4214   001762                     l2488:
  4215                           
  4216                           ;MCAL_Layer/GPIO/hal_gpio.c: 98:     return ret ;
  4217   001762  5008               	movf	gpio_pin_write_logic@ret^0,w,c
  4218   001764  0012               	return		;funcret
  4219   001766                     __end_of_gpio_pin_write_logic:
  4220                           	callstack 0
  4221                           
  4222 ;; *************** function _gpio_pin_direction_intialize *****************
  4223 ;; Defined at:
  4224 ;;		line 26 in file "MCAL_Layer/GPIO/hal_gpio.c"
  4225 ;; Parameters:    Size  Location     Type
  4226 ;;  _pin_config     1    0[COMRAM] PTR const struct .
  4227 ;;		 -> keypad_1$keypad_colomns_pins(4), keypad_1$keypad_row_pins(4), keypad_1(8), lcd_1$lcd_data(4), 
  4228 ;;		 -> lcd_1(6), relay_initialize@pin_obj(1), led_initialize@pin_obj(1), 
  4229 ;; Auto vars:     Size  Location     Type
  4230 ;;  ret             1    6[COMRAM] unsigned char 
  4231 ;; Return value:  Size  Location     Type
  4232 ;;                  1    wreg      unsigned char 
  4233 ;; Registers used:
  4234 ;;		wreg, fsr2l, fsr2h, status,2, status,0, prodl, prodh
  4235 ;; Tracked objects:
  4236 ;;		On entry : 0/0
  4237 ;;		On exit  : 0/0
  4238 ;;		Unchanged: 0/0
  4239 ;; Data sizes:     COMRAM   BANK0   BANK1   BANK2   BANK3   BANK4   BANK5   BANK6   BANK7   BANK8   BANK9  BANK10  BANK1
      +1  BANK12  BANK13  BANK14  BANK15
  4240 ;;      Params:         1       0       0       0       0       0       0       0       0       0       0       0       
      +0       0       0       0       0
  4241 ;;      Locals:         1       0       0       0       0       0       0       0       0       0       0       0       
      +0       0       0       0       0
  4242 ;;      Temps:          5       0       0       0       0       0       0       0       0       0       0       0       
      +0       0       0       0       0
  4243 ;;      Totals:         7       0       0       0       0       0       0       0       0       0       0       0       
      +0       0       0       0       0
  4244 ;;Total ram usage:        7 bytes
  4245 ;; Hardware stack levels used: 1
  4246 ;; This function calls:
  4247 ;;		Nothing
  4248 ;; This function is called by:
  4249 ;;		_gpio_pin_intialize
  4250 ;;		_button_initialize
  4251 ;; This function uses a non-reentrant model
  4252 ;;
  4253                           
  4254                           	psect	text27
  4255   00152C                     __ptext27:
  4256                           	callstack 0
  4257   00152C                     _gpio_pin_direction_intialize:
  4258                           	callstack 26
  4259   00152C                     
  4260                           ;MCAL_Layer/GPIO/hal_gpio.c: 27:     Std_ReturnType ret = (Std_ReturnType)0x01;
  4261   00152C  0E01               	movlw	1
  4262   00152E  6E07               	movwf	gpio_pin_direction_intialize@ret^0,c
  4263                           
  4264                           ;MCAL_Layer/GPIO/hal_gpio.c: 28:     if(((void*)0) == _pin_config || _pin_config->pin > 
      +                          8 - 1)
  4265   001530  5001               	movf	gpio_pin_direction_intialize@_pin_config^0,w,c
  4266   001532  B4D8               	btfsc	status,2,c
  4267   001534  EF9E  F00A         	goto	u1471
  4268   001538  EFA0  F00A         	goto	u1470
  4269   00153C                     u1471:
  4270   00153C  EFB0  F00A         	goto	l2500
  4271   001540                     u1470:
  4272   001540  5001               	movf	gpio_pin_direction_intialize@_pin_config^0,w,c
  4273   001542  6ED9               	movwf	fsr2l,c
  4274   001544  6ADA               	clrf	fsr2h,c
  4275   001546  30DF               	rrcf	223,w,c
  4276   001548  32E8               	rrcf	wreg,f,c
  4277   00154A  32E8               	rrcf	wreg,f,c
  4278   00154C  0B07               	andlw	7
  4279   00154E  6E02               	movwf	??_gpio_pin_direction_intialize^0,c
  4280   001550  0E07               	movlw	7
  4281   001552  6402               	cpfsgt	??_gpio_pin_direction_intialize^0,c
  4282   001554  EFAE  F00A         	goto	u1481
  4283   001558  EFB0  F00A         	goto	u1480
  4284   00155C                     u1481:
  4285   00155C  EF09  F00B         	goto	l2508
  4286   001560                     u1480:
  4287   001560                     l2500:
  4288                           
  4289                           ;MCAL_Layer/GPIO/hal_gpio.c: 31:     }
  4290   001560  EF2A  F00B         	goto	l401
  4291   001564                     l2502:
  4292                           
  4293                           ;MCAL_Layer/GPIO/hal_gpio.c: 37:             (*tris_registers[_pin_config->port] &= ~((u
      +                          int8) 1 << _pin_config->pin));
  4294   001564  5001               	movf	gpio_pin_direction_intialize@_pin_config^0,w,c
  4295   001566  6ED9               	movwf	fsr2l,c
  4296   001568  6ADA               	clrf	fsr2h,c
  4297   00156A  30DF               	rrcf	223,w,c
  4298   00156C  32E8               	rrcf	wreg,f,c
  4299   00156E  32E8               	rrcf	wreg,f,c
  4300   001570  0B07               	andlw	7
  4301   001572  6E02               	movwf	??_gpio_pin_direction_intialize^0,c
  4302   001574  0E01               	movlw	1
  4303   001576  6E03               	movwf	(??_gpio_pin_direction_intialize+1)^0,c
  4304   001578  2A02               	incf	??_gpio_pin_direction_intialize^0,f,c
  4305   00157A  EFC1  F00A         	goto	u1494
  4306   00157E                     u1495:
  4307   00157E  90D8               	bcf	status,0,c
  4308   001580  3603               	rlcf	(??_gpio_pin_direction_intialize+1)^0,f,c
  4309   001582                     u1494:
  4310   001582  2E02               	decfsz	??_gpio_pin_direction_intialize^0,f,c
  4311   001584  EFBF  F00A         	goto	u1495
  4312   001588  5003               	movf	(??_gpio_pin_direction_intialize+1)^0,w,c
  4313   00158A  0AFF               	xorlw	255
  4314   00158C  6E04               	movwf	(??_gpio_pin_direction_intialize+2)^0,c
  4315   00158E  5001               	movf	gpio_pin_direction_intialize@_pin_config^0,w,c
  4316   001590  6ED9               	movwf	fsr2l,c
  4317   001592  6ADA               	clrf	fsr2h,c
  4318   001594  50DF               	movf	223,w,c
  4319   001596  0B07               	andlw	7
  4320   001598  0D02               	mullw	2
  4321   00159A  50F3               	movf	243,w,c
  4322   00159C  0F5C               	addlw	low _tris_registers
  4323   00159E  6ED9               	movwf	fsr2l,c
  4324   0015A0  6ADA               	clrf	fsr2h,c
  4325   0015A2  CFDE F005          	movff	postinc2,??_gpio_pin_direction_intialize+3
  4326   0015A6  CFDD F006          	movff	postdec2,??_gpio_pin_direction_intialize+4
  4327   0015AA  C005  FFD9         	movff	??_gpio_pin_direction_intialize+3,fsr2l
  4328   0015AE  C006  FFDA         	movff	??_gpio_pin_direction_intialize+4,fsr2h
  4329   0015B2  5004               	movf	(??_gpio_pin_direction_intialize+2)^0,w,c
  4330   0015B4  16DF               	andwf	indf2,f,c
  4331                           
  4332                           ;MCAL_Layer/GPIO/hal_gpio.c: 38:             break;
  4333   0015B6  EF29  F00B         	goto	l2510
  4334   0015BA                     l2504:
  4335                           
  4336                           ;MCAL_Layer/GPIO/hal_gpio.c: 40:             (*tris_registers[_pin_config->port] |= ((ui
      +                          nt8) 1 << _pin_config->pin));
  4337   0015BA  5001               	movf	gpio_pin_direction_intialize@_pin_config^0,w,c
  4338   0015BC  6ED9               	movwf	fsr2l,c
  4339   0015BE  6ADA               	clrf	fsr2h,c
  4340   0015C0  30DF               	rrcf	223,w,c
  4341   0015C2  32E8               	rrcf	wreg,f,c
  4342   0015C4  32E8               	rrcf	wreg,f,c
  4343   0015C6  0B07               	andlw	7
  4344   0015C8  6E02               	movwf	??_gpio_pin_direction_intialize^0,c
  4345   0015CA  0E01               	movlw	1
  4346   0015CC  6E03               	movwf	(??_gpio_pin_direction_intialize+1)^0,c
  4347   0015CE  2A02               	incf	??_gpio_pin_direction_intialize^0,f,c
  4348   0015D0  EFEC  F00A         	goto	u1504
  4349   0015D4                     u1505:
  4350   0015D4  90D8               	bcf	status,0,c
  4351   0015D6  3603               	rlcf	(??_gpio_pin_direction_intialize+1)^0,f,c
  4352   0015D8                     u1504:
  4353   0015D8  2E02               	decfsz	??_gpio_pin_direction_intialize^0,f,c
  4354   0015DA  EFEA  F00A         	goto	u1505
  4355   0015DE  5001               	movf	gpio_pin_direction_intialize@_pin_config^0,w,c
  4356   0015E0  6ED9               	movwf	fsr2l,c
  4357   0015E2  6ADA               	clrf	fsr2h,c
  4358   0015E4  50DF               	movf	223,w,c
  4359   0015E6  0B07               	andlw	7
  4360   0015E8  0D02               	mullw	2
  4361   0015EA  50F3               	movf	243,w,c
  4362   0015EC  0F5C               	addlw	low _tris_registers
  4363   0015EE  6ED9               	movwf	fsr2l,c
  4364   0015F0  6ADA               	clrf	fsr2h,c
  4365   0015F2  CFDE F004          	movff	postinc2,??_gpio_pin_direction_intialize+2
  4366   0015F6  CFDD F005          	movff	postdec2,??_gpio_pin_direction_intialize+3
  4367   0015FA  C004  FFD9         	movff	??_gpio_pin_direction_intialize+2,fsr2l
  4368   0015FE  C005  FFDA         	movff	??_gpio_pin_direction_intialize+3,fsr2h
  4369   001602  5003               	movf	(??_gpio_pin_direction_intialize+1)^0,w,c
  4370   001604  12DF               	iorwf	indf2,f,c
  4371                           
  4372                           ;MCAL_Layer/GPIO/hal_gpio.c: 41:             break;
  4373   001606  EF29  F00B         	goto	l2510
  4374   00160A                     l2506:
  4375   00160A  0E00               	movlw	0
  4376   00160C  6E07               	movwf	gpio_pin_direction_intialize@ret^0,c
  4377                           
  4378                           ;MCAL_Layer/GPIO/hal_gpio.c: 43:     }
  4379   00160E  EF29  F00B         	goto	l2510
  4380   001612                     l2508:
  4381   001612  5001               	movf	gpio_pin_direction_intialize@_pin_config^0,w,c
  4382   001614  6ED9               	movwf	fsr2l,c
  4383   001616  6ADA               	clrf	fsr2h,c
  4384   001618  BCDF               	btfsc	indf2,6,c
  4385   00161A  EF11  F00B         	goto	u1511
  4386   00161E  EF14  F00B         	goto	u1510
  4387   001622                     u1511:
  4388   001622  0E01               	movlw	1
  4389   001624  EF15  F00B         	goto	u1520
  4390   001628                     u1510:
  4391   001628  0E00               	movlw	0
  4392   00162A                     u1520:
  4393   00162A  6E02               	movwf	??_gpio_pin_direction_intialize^0,c
  4394   00162C  6A03               	clrf	(??_gpio_pin_direction_intialize+1)^0,c
  4395                           
  4396                           ; Switch on 2 bytes has been partitioned into a top level switch of size 1, and 1 sub-sw
      +                          itches
  4397                           ; Switch size 1, requested type "simple"
  4398                           ; Number of cases is 1, Range of values is 0 to 0
  4399                           ; switch strategies available:
  4400                           ; Name         Instructions Cycles
  4401                           ; simple_byte            4     3 (average)
  4402                           ;	Chosen strategy is simple_byte
  4403   00162E  5003               	movf	(??_gpio_pin_direction_intialize+1)^0,w,c
  4404   001630  0A00               	xorlw	0	; case 0
  4405   001632  B4D8               	btfsc	status,2,c
  4406   001634  EF1E  F00B         	goto	l3636
  4407   001638  EF05  F00B         	goto	l2506
  4408   00163C                     l3636:
  4409                           
  4410                           ; Switch size 1, requested type "simple"
  4411                           ; Number of cases is 2, Range of values is 0 to 1
  4412                           ; switch strategies available:
  4413                           ; Name         Instructions Cycles
  4414                           ; simple_byte            7     4 (average)
  4415                           ;	Chosen strategy is simple_byte
  4416   00163C  5002               	movf	??_gpio_pin_direction_intialize^0,w,c
  4417   00163E  0A00               	xorlw	0	; case 0
  4418   001640  B4D8               	btfsc	status,2,c
  4419   001642  EFB2  F00A         	goto	l2502
  4420   001646  0A01               	xorlw	1	; case 1
  4421   001648  B4D8               	btfsc	status,2,c
  4422   00164A  EFDD  F00A         	goto	l2504
  4423   00164E  EF05  F00B         	goto	l2506
  4424   001652                     l2510:
  4425                           
  4426                           ;MCAL_Layer/GPIO/hal_gpio.c: 44:     return ret ;
  4427   001652  5007               	movf	gpio_pin_direction_intialize@ret^0,w,c
  4428   001654                     l401:
  4429   001654  0012               	return		;funcret
  4430   001656                     __end_of_gpio_pin_direction_intialize:
  4431                           	callstack 0
  4432                           
  4433 ;; *************** function ___lwdiv *****************
  4434 ;; Defined at:
  4435 ;;		line 7 in file "C:\Program Files\Microchip\xc8\v2.45\pic\sources\c99\common\lwdiv.c"
  4436 ;; Parameters:    Size  Location     Type
  4437 ;;  dividend        2    0[COMRAM] unsigned int 
  4438 ;;  divisor         2    2[COMRAM] unsigned int 
  4439 ;; Auto vars:     Size  Location     Type
  4440 ;;  quotient        2    4[COMRAM] unsigned int 
  4441 ;;  counter         1    6[COMRAM] unsigned char 
  4442 ;; Return value:  Size  Location     Type
  4443 ;;                  2    0[COMRAM] unsigned int 
  4444 ;; Registers used:
  4445 ;;		wreg, status,2, status,0
  4446 ;; Tracked objects:
  4447 ;;		On entry : 0/0
  4448 ;;		On exit  : 0/0
  4449 ;;		Unchanged: 0/0
  4450 ;; Data sizes:     COMRAM   BANK0   BANK1   BANK2   BANK3   BANK4   BANK5   BANK6   BANK7   BANK8   BANK9  BANK10  BANK1
      +1  BANK12  BANK13  BANK14  BANK15
  4451 ;;      Params:         4       0       0       0       0       0       0       0       0       0       0       0       
      +0       0       0       0       0
  4452 ;;      Locals:         3       0       0       0       0       0       0       0       0       0       0       0       
      +0       0       0       0       0
  4453 ;;      Temps:          0       0       0       0       0       0       0       0       0       0       0       0       
      +0       0       0       0       0
  4454 ;;      Totals:         7       0       0       0       0       0       0       0       0       0       0       0       
      +0       0       0       0       0
  4455 ;;Total ram usage:        7 bytes
  4456 ;; Hardware stack levels used: 1
  4457 ;; This function calls:
  4458 ;;		Nothing
  4459 ;; This function is called by:
  4460 ;;		_main
  4461 ;; This function uses a non-reentrant model
  4462 ;;
  4463                           
  4464                           	psect	text28
  4465   001DDE                     __ptext28:
  4466                           	callstack 0
  4467   001DDE                     ___lwdiv:
  4468                           	callstack 30
  4469   001DDE  0E00               	movlw	0
  4470   001DE0  6E06               	movwf	(___lwdiv@quotient+1)^0,c
  4471   001DE2  0E00               	movlw	0
  4472   001DE4  6E05               	movwf	___lwdiv@quotient^0,c
  4473   001DE6  5003               	movf	___lwdiv@divisor^0,w,c
  4474   001DE8  1004               	iorwf	(___lwdiv@divisor+1)^0,w,c
  4475   001DEA  B4D8               	btfsc	status,2,c
  4476   001DEC  EFFA  F00E         	goto	u2231
  4477   001DF0  EFFC  F00E         	goto	u2230
  4478   001DF4                     u2231:
  4479   001DF4  EF24  F00F         	goto	l1017
  4480   001DF8                     u2230:
  4481   001DF8  0E01               	movlw	1
  4482   001DFA  6E07               	movwf	___lwdiv@counter^0,c
  4483   001DFC  EF04  F00F         	goto	l3080
  4484   001E00                     l3078:
  4485   001E00  90D8               	bcf	status,0,c
  4486   001E02  3603               	rlcf	___lwdiv@divisor^0,f,c
  4487   001E04  3604               	rlcf	(___lwdiv@divisor+1)^0,f,c
  4488   001E06  2A07               	incf	___lwdiv@counter^0,f,c
  4489   001E08                     l3080:
  4490   001E08  AE04               	btfss	(___lwdiv@divisor+1)^0,7,c
  4491   001E0A  EF09  F00F         	goto	u2241
  4492   001E0E  EF0B  F00F         	goto	u2240
  4493   001E12                     u2241:
  4494   001E12  EF00  F00F         	goto	l3078
  4495   001E16                     u2240:
  4496   001E16                     l3082:
  4497   001E16  90D8               	bcf	status,0,c
  4498   001E18  3605               	rlcf	___lwdiv@quotient^0,f,c
  4499   001E1A  3606               	rlcf	(___lwdiv@quotient+1)^0,f,c
  4500   001E1C  5003               	movf	___lwdiv@divisor^0,w,c
  4501   001E1E  5C01               	subwf	___lwdiv@dividend^0,w,c
  4502   001E20  5004               	movf	(___lwdiv@divisor+1)^0,w,c
  4503   001E22  5802               	subwfb	(___lwdiv@dividend+1)^0,w,c
  4504   001E24  A0D8               	btfss	status,0,c
  4505   001E26  EF17  F00F         	goto	u2251
  4506   001E2A  EF19  F00F         	goto	u2250
  4507   001E2E                     u2251:
  4508   001E2E  EF1E  F00F         	goto	l3090
  4509   001E32                     u2250:
  4510   001E32  5003               	movf	___lwdiv@divisor^0,w,c
  4511   001E34  5E01               	subwf	___lwdiv@dividend^0,f,c
  4512   001E36  5004               	movf	(___lwdiv@divisor+1)^0,w,c
  4513   001E38  5A02               	subwfb	(___lwdiv@dividend+1)^0,f,c
  4514   001E3A  8005               	bsf	___lwdiv@quotient^0,0,c
  4515   001E3C                     l3090:
  4516   001E3C  90D8               	bcf	status,0,c
  4517   001E3E  3204               	rrcf	(___lwdiv@divisor+1)^0,f,c
  4518   001E40  3203               	rrcf	___lwdiv@divisor^0,f,c
  4519   001E42  2E07               	decfsz	___lwdiv@counter^0,f,c
  4520   001E44  EF0B  F00F         	goto	l3082
  4521   001E48                     l1017:
  4522   001E48  C005  F001         	movff	___lwdiv@quotient,?___lwdiv
  4523   001E4C  C006  F002         	movff	___lwdiv@quotient+1,?___lwdiv+1
  4524   001E50  0012               	return		;funcret
  4525   001E52                     __end_of___lwdiv:
  4526                           	callstack 0
  4527                           
  4528 ;; *************** function _Number_return *****************
  4529 ;; Defined at:
  4530 ;;		line 470 in file "ECU_Layer/Chr_LCD/ecu_chr_lcd.c"
  4531 ;; Parameters:    Size  Location     Type
  4532 ;;  arr             1    6[COMRAM] PTR unsigned char 
  4533 ;;		 -> main@SecondNumber(6), main@FirstNumber(6), 
  4534 ;;  count           1    7[COMRAM] unsigned char 
  4535 ;; Auto vars:     Size  Location     Type
  4536 ;;  i               2   13[COMRAM] int 
  4537 ;;  num             2   11[COMRAM] unsigned short 
  4538 ;; Return value:  Size  Location     Type
  4539 ;;                  2    6[COMRAM] unsigned short 
  4540 ;; Registers used:
  4541 ;;		wreg, fsr2l, fsr2h, status,2, status,0, prodl, prodh, cstack
  4542 ;; Tracked objects:
  4543 ;;		On entry : 0/0
  4544 ;;		On exit  : 0/0
  4545 ;;		Unchanged: 0/0
  4546 ;; Data sizes:     COMRAM   BANK0   BANK1   BANK2   BANK3   BANK4   BANK5   BANK6   BANK7   BANK8   BANK9  BANK10  BANK1
      +1  BANK12  BANK13  BANK14  BANK15
  4547 ;;      Params:         2       0       0       0       0       0       0       0       0       0       0       0       
      +0       0       0       0       0
  4548 ;;      Locals:         4       0       0       0       0       0       0       0       0       0       0       0       
      +0       0       0       0       0
  4549 ;;      Temps:          3       0       0       0       0       0       0       0       0       0       0       0       
      +0       0       0       0       0
  4550 ;;      Totals:         9       0       0       0       0       0       0       0       0       0       0       0       
      +0       0       0       0       0
  4551 ;;Total ram usage:        9 bytes
  4552 ;; Hardware stack levels used: 1
  4553 ;; Hardware stack levels required when called: 1
  4554 ;; This function calls:
  4555 ;;		___wmul
  4556 ;; This function is called by:
  4557 ;;		_main
  4558 ;; This function uses a non-reentrant model
  4559 ;;
  4560                           
  4561                           	psect	text29
  4562   001D64                     __ptext29:
  4563                           	callstack 0
  4564   001D64                     _Number_return:
  4565                           	callstack 29
  4566   001D64                     
  4567                           ;ECU_Layer/Chr_LCD/ecu_chr_lcd.c: 471:     uint16 num = 0;
  4568   001D64  0E00               	movlw	0
  4569   001D66  6E0D               	movwf	(Number_return@num+1)^0,c
  4570   001D68  0E00               	movlw	0
  4571   001D6A  6E0C               	movwf	Number_return@num^0,c
  4572                           
  4573                           ;ECU_Layer/Chr_LCD/ecu_chr_lcd.c: 472:     for(int i = 0; i < count; i++){
  4574   001D6C  0E00               	movlw	0
  4575   001D6E  6E0F               	movwf	(Number_return@i+1)^0,c
  4576   001D70  0E00               	movlw	0
  4577   001D72  6E0E               	movwf	Number_return@i^0,c
  4578   001D74  EFD8  F00E         	goto	l3014
  4579   001D78                     l3010:
  4580                           
  4581                           ;ECU_Layer/Chr_LCD/ecu_chr_lcd.c: 473:         num = num * 10 + (arr[i] - '0');
  4582   001D78  C00C  F001         	movff	Number_return@num,___wmul@multiplier
  4583   001D7C  C00D  F002         	movff	Number_return@num+1,___wmul@multiplier+1
  4584   001D80  0E00               	movlw	0
  4585   001D82  6E04               	movwf	(___wmul@multiplicand+1)^0,c
  4586   001D84  0E0A               	movlw	10
  4587   001D86  6E03               	movwf	___wmul@multiplicand^0,c
  4588   001D88  EC26  F011         	call	___wmul	;wreg free
  4589   001D8C  5007               	movf	Number_return@arr^0,w,c
  4590   001D8E  240E               	addwf	Number_return@i^0,w,c
  4591   001D90  6ED9               	movwf	fsr2l,c
  4592   001D92  6ADA               	clrf	fsr2h,c
  4593   001D94  50DF               	movf	indf2,w,c
  4594   001D96  6E09               	movwf	??_Number_return^0,c
  4595   001D98  5009               	movf	??_Number_return^0,w,c
  4596   001D9A  2601               	addwf	?___wmul^0,f,c
  4597   001D9C  0E00               	movlw	0
  4598   001D9E  2202               	addwfc	(?___wmul+1)^0,f,c
  4599   001DA0  0ED0               	movlw	208
  4600   001DA2  2401               	addwf	?___wmul^0,w,c
  4601   001DA4  6E0C               	movwf	Number_return@num^0,c
  4602   001DA6  0EFF               	movlw	255
  4603   001DA8  2002               	addwfc	(?___wmul+1)^0,w,c
  4604   001DAA  6E0D               	movwf	(Number_return@num+1)^0,c
  4605   001DAC                     
  4606                           ;ECU_Layer/Chr_LCD/ecu_chr_lcd.c: 474:     }
  4607   001DAC  4A0E               	infsnz	Number_return@i^0,f,c
  4608   001DAE  2A0F               	incf	(Number_return@i+1)^0,f,c
  4609   001DB0                     l3014:
  4610   001DB0  5008               	movf	Number_return@count^0,w,c
  4611   001DB2  6E09               	movwf	??_Number_return^0,c
  4612   001DB4  6A0A               	clrf	(??_Number_return+1)^0,c
  4613   001DB6  5009               	movf	??_Number_return^0,w,c
  4614   001DB8  5C0E               	subwf	Number_return@i^0,w,c
  4615   001DBA  500F               	movf	(Number_return@i+1)^0,w,c
  4616   001DBC  0A80               	xorlw	128
  4617   001DBE  6E0B               	movwf	(??_Number_return+2)^0,c
  4618   001DC0  500A               	movf	(??_Number_return+1)^0,w,c
  4619   001DC2  0A80               	xorlw	128
  4620   001DC4  580B               	subwfb	(??_Number_return+2)^0,w,c
  4621   001DC6  A0D8               	btfss	status,0,c
  4622   001DC8  EFE8  F00E         	goto	u2161
  4623   001DCC  EFEA  F00E         	goto	u2160
  4624   001DD0                     u2161:
  4625   001DD0  EFBC  F00E         	goto	l3010
  4626   001DD4                     u2160:
  4627   001DD4                     
  4628                           ;ECU_Layer/Chr_LCD/ecu_chr_lcd.c: 475:     return num;
  4629   001DD4  C00C  F007         	movff	Number_return@num,?_Number_return
  4630   001DD8  C00D  F008         	movff	Number_return@num+1,?_Number_return+1
  4631   001DDC  0012               	return		;funcret
  4632   001DDE                     __end_of_Number_return:
  4633                           	callstack 0
  4634                           
  4635 ;; *************** function ___wmul *****************
  4636 ;; Defined at:
  4637 ;;		line 15 in file "C:\Program Files\Microchip\xc8\v2.45\pic\sources\c99\common\Umul16.c"
  4638 ;; Parameters:    Size  Location     Type
  4639 ;;  multiplier      2    0[COMRAM] unsigned int 
  4640 ;;  multiplicand    2    2[COMRAM] unsigned int 
  4641 ;; Auto vars:     Size  Location     Type
  4642 ;;  product         2    4[COMRAM] unsigned int 
  4643 ;; Return value:  Size  Location     Type
  4644 ;;                  2    0[COMRAM] unsigned int 
  4645 ;; Registers used:
  4646 ;;		wreg, status,2, status,0, prodl, prodh
  4647 ;; Tracked objects:
  4648 ;;		On entry : 0/0
  4649 ;;		On exit  : 0/0
  4650 ;;		Unchanged: 0/0
  4651 ;; Data sizes:     COMRAM   BANK0   BANK1   BANK2   BANK3   BANK4   BANK5   BANK6   BANK7   BANK8   BANK9  BANK10  BANK1
      +1  BANK12  BANK13  BANK14  BANK15
  4652 ;;      Params:         4       0       0       0       0       0       0       0       0       0       0       0       
      +0       0       0       0       0
  4653 ;;      Locals:         2       0       0       0       0       0       0       0       0       0       0       0       
      +0       0       0       0       0
  4654 ;;      Temps:          0       0       0       0       0       0       0       0       0       0       0       0       
      +0       0       0       0       0
  4655 ;;      Totals:         6       0       0       0       0       0       0       0       0       0       0       0       
      +0       0       0       0       0
  4656 ;;Total ram usage:        6 bytes
  4657 ;; Hardware stack levels used: 1
  4658 ;; This function calls:
  4659 ;;		Nothing
  4660 ;; This function is called by:
  4661 ;;		_Number_return
  4662 ;;		_main
  4663 ;; This function uses a non-reentrant model
  4664 ;;
  4665                           
  4666                           	psect	text30
  4667   00224C                     __ptext30:
  4668                           	callstack 0
  4669   00224C                     ___wmul:
  4670                           	callstack 30
  4671   00224C  5001               	movf	___wmul@multiplier^0,w,c
  4672   00224E  0203               	mulwf	___wmul@multiplicand^0,c
  4673   002250  CFF3 F005          	movff	prodl,___wmul@product
  4674   002254  CFF4 F006          	movff	prodh,___wmul@product+1
  4675   002258  5001               	movf	___wmul@multiplier^0,w,c
  4676   00225A  0204               	mulwf	(___wmul@multiplicand+1)^0,c
  4677   00225C  50F3               	movf	243,w,c
  4678   00225E  2606               	addwf	(___wmul@product+1)^0,f,c
  4679   002260  5002               	movf	(___wmul@multiplier+1)^0,w,c
  4680   002262  0203               	mulwf	___wmul@multiplicand^0,c
  4681   002264  50F3               	movf	243,w,c
  4682   002266  2606               	addwf	(___wmul@product+1)^0,f,c
  4683   002268  C005  F001         	movff	___wmul@product,?___wmul
  4684   00226C  C006  F002         	movff	___wmul@product+1,?___wmul+1
  4685   002270  0012               	return		;funcret
  4686   002272                     __end_of___wmul:
  4687                           	callstack 0
  4688                           
  4689                           	psect	rparam
  4690   000000                     
  4691                           	psect	config
  4692                           
  4693                           ; Padding undefined space
  4694   300000                     	org	3145728
  4695   300000  FF                 	db	255
  4696                           
  4697                           ;Config register CONFIG1H @ 0x300001
  4698                           ;	Oscillator Selection bits
  4699                           ;	OSC = HS, HS oscillator
  4700                           ;	Fail-Safe Clock Monitor Enable bit
  4701                           ;	FCMEN = OFF, Fail-Safe Clock Monitor disabled
  4702                           ;	Internal/External Oscillator Switchover bit
  4703                           ;	IESO = OFF, Oscillator Switchover mode disabled
  4704   300001                     	org	3145729
  4705   300001  02                 	db	2
  4706                           
  4707                           ;Config register CONFIG2L @ 0x300002
  4708                           ;	Power-up Timer Enable bit
  4709                           ;	PWRT = OFF, PWRT disabled
  4710                           ;	Brown-out Reset Enable bits
  4711                           ;	BOREN = OFF, Brown-out Reset disabled in hardware and software
  4712                           ;	Brown Out Reset Voltage bits
  4713                           ;	BORV = 1, 
  4714   300002                     	org	3145730
  4715   300002  09                 	db	9
  4716                           
  4717                           ;Config register CONFIG2H @ 0x300003
  4718                           ;	Watchdog Timer Enable bit
  4719                           ;	WDT = OFF, WDT disabled (control is placed on the SWDTEN bit)
  4720                           ;	Watchdog Timer Postscale Select bits
  4721                           ;	WDTPS = 32768, 1:32768
  4722   300003                     	org	3145731
  4723   300003  1E                 	db	30
  4724                           
  4725                           ; Padding undefined space
  4726   300004                     	org	3145732
  4727   300004  FF                 	db	255
  4728                           
  4729                           ;Config register CONFIG3H @ 0x300005
  4730                           ;	CCP2 MUX bit
  4731                           ;	CCP2MX = PORTC, CCP2 input/output is multiplexed with RC1
  4732                           ;	PORTB A/D Enable bit
  4733                           ;	PBADEN = OFF, PORTB<4:0> pins are configured as digital I/O on Reset
  4734                           ;	Low-Power Timer1 Oscillator Enable bit
  4735                           ;	LPT1OSC = OFF, Timer1 configured for higher power operation
  4736                           ;	MCLR Pin Enable bit
  4737                           ;	MCLRE = ON, MCLR pin enabled; RE3 input pin disabled
  4738   300005                     	org	3145733
  4739   300005  81                 	db	129
  4740                           
  4741                           ;Config register CONFIG4L @ 0x300006
  4742                           ;	Stack Full/Underflow Reset Enable bit
  4743                           ;	STVREN = ON, Stack full/underflow will cause Reset
  4744                           ;	Single-Supply ICSP Enable bit
  4745                           ;	LVP = OFF, Single-Supply ICSP disabled
  4746                           ;	Extended Instruction Set Enable bit
  4747                           ;	XINST = OFF, Instruction set extension and Indexed Addressing mode disabled (Legacy mo
      +                          de)
  4748                           ;	Background Debugger Enable bit
  4749                           ;	DEBUG = 0x1, unprogrammed default
  4750   300006                     	org	3145734
  4751   300006  81                 	db	129
  4752                           
  4753                           ; Padding undefined space
  4754   300007                     	org	3145735
  4755   300007  FF                 	db	255
  4756                           
  4757                           ;Config register CONFIG5L @ 0x300008
  4758                           ;	Code Protection bit
  4759                           ;	CP0 = OFF, Block 0 (000800-003FFFh) not code-protected
  4760                           ;	Code Protection bit
  4761                           ;	CP1 = OFF, Block 1 (004000-007FFFh) not code-protected
  4762                           ;	Code Protection bit
  4763                           ;	CP2 = OFF, Block 2 (008000-00BFFFh) not code-protected
  4764                           ;	Code Protection bit
  4765                           ;	CP3 = OFF, Block 3 (00C000-00FFFFh) not code-protected
  4766   300008                     	org	3145736
  4767   300008  0F                 	db	15
  4768                           
  4769                           ;Config register CONFIG5H @ 0x300009
  4770                           ;	Boot Block Code Protection bit
  4771                           ;	CPB = OFF, Boot block (000000-0007FFh) not code-protected
  4772                           ;	Data EEPROM Code Protection bit
  4773                           ;	CPD = OFF, Data EEPROM not code-protected
  4774   300009                     	org	3145737
  4775   300009  C0                 	db	192
  4776                           
  4777                           ;Config register CONFIG6L @ 0x30000A
  4778                           ;	Write Protection bit
  4779                           ;	WRT0 = OFF, Block 0 (000800-003FFFh) not write-protected
  4780                           ;	Write Protection bit
  4781                           ;	WRT1 = OFF, Block 1 (004000-007FFFh) not write-protected
  4782                           ;	Write Protection bit
  4783                           ;	WRT2 = OFF, Block 2 (008000-00BFFFh) not write-protected
  4784                           ;	Write Protection bit
  4785                           ;	WRT3 = OFF, Block 3 (00C000-00FFFFh) not write-protected
  4786   30000A                     	org	3145738
  4787   30000A  0F                 	db	15
  4788                           
  4789                           ;Config register CONFIG6H @ 0x30000B
  4790                           ;	Configuration Register Write Protection bit
  4791                           ;	WRTC = OFF, Configuration registers (300000-3000FFh) not write-protected
  4792                           ;	Boot Block Write Protection bit
  4793                           ;	WRTB = OFF, Boot Block (000000-0007FFh) not write-protected
  4794                           ;	Data EEPROM Write Protection bit
  4795                           ;	WRTD = OFF, Data EEPROM not write-protected
  4796   30000B                     	org	3145739
  4797   30000B  E0                 	db	224
  4798                           
  4799                           ;Config register CONFIG7L @ 0x30000C
  4800                           ;	Table Read Protection bit
  4801                           ;	EBTR0 = OFF, Block 0 (000800-003FFFh) not protected from table reads executed in other
      +                           blocks
  4802                           ;	Table Read Protection bit
  4803                           ;	EBTR1 = OFF, Block 1 (004000-007FFFh) not protected from table reads executed in other
      +                           blocks
  4804                           ;	Table Read Protection bit
  4805                           ;	EBTR2 = OFF, Block 2 (008000-00BFFFh) not protected from table reads executed in other
      +                           blocks
  4806                           ;	Table Read Protection bit
  4807                           ;	EBTR3 = OFF, Block 3 (00C000-00FFFFh) not protected from table reads executed in other
      +                           blocks
  4808   30000C                     	org	3145740
  4809   30000C  0F                 	db	15
  4810                           
  4811                           ;Config register CONFIG7H @ 0x30000D
  4812                           ;	Boot Block Table Read Protection bit
  4813                           ;	EBTRB = OFF, Boot Block (000000-0007FFh) not protected from table reads executed in ot
      +                          her blocks
  4814   30000D                     	org	3145741
  4815   30000D  40                 	db	64
  4816                           tosu	equ	0xFFF
  4817                           tosh	equ	0xFFE
  4818                           tosl	equ	0xFFD
  4819                           stkptr	equ	0xFFC
  4820                           pclatu	equ	0xFFB
  4821                           pclath	equ	0xFFA
  4822                           pcl	equ	0xFF9
  4823                           tblptru	equ	0xFF8
  4824                           tblptrh	equ	0xFF7
  4825                           tblptrl	equ	0xFF6
  4826                           tablat	equ	0xFF5
  4827                           prodh	equ	0xFF4
  4828                           prodl	equ	0xFF3
  4829                           indf0	equ	0xFEF
  4830                           postinc0	equ	0xFEE
  4831                           postdec0	equ	0xFED
  4832                           preinc0	equ	0xFEC
  4833                           plusw0	equ	0xFEB
  4834                           fsr0h	equ	0xFEA
  4835                           fsr0l	equ	0xFE9
  4836                           wreg	equ	0xFE8
  4837                           indf1	equ	0xFE7
  4838                           postinc1	equ	0xFE6
  4839                           postdec1	equ	0xFE5
  4840                           preinc1	equ	0xFE4
  4841                           plusw1	equ	0xFE3
  4842                           fsr1h	equ	0xFE2
  4843                           fsr1l	equ	0xFE1
  4844                           bsr	equ	0xFE0
  4845                           indf2	equ	0xFDF
  4846                           postinc2	equ	0xFDE
  4847                           postdec2	equ	0xFDD
  4848                           preinc2	equ	0xFDC
  4849                           plusw2	equ	0xFDB
  4850                           fsr2h	equ	0xFDA
  4851                           fsr2l	equ	0xFD9
  4852                           status	equ	0xFD8

Data Sizes:
    Strings     48
    Constant    16
    Data        44
    BSS         44
    Persistent  1
    Stack       0

Auto Spaces:
    Space          Size  Autos    Used
    COMRAM          127     81     127
    BANK0           128      0      43
    BANK1           256      0       0
    BANK2           256      0       0
    BANK3           256      0       0
    BANK4           256      0       0
    BANK5           256      0       0
    BANK6           256      0       0
    BANK7           256      0       0
    BANK8           256      0       0
    BANK9           256      0       0
    BANK10          256      0       0
    BANK11          256      0       0
    BANK12          256      0       0
    BANK13          256      0       0
    BANK14          256      0       0
    BANK15          128      0       0

Pointer List with Targets:

    clearDataArrays@arr	PTR unsigned char  size(1) Largest target is 6
		 -> main@FirstNumber(COMRAM[6]), main@SecondNumber(COMRAM[6]), 

    convert_uint16_to_string@str	PTR unsigned char  size(1) Largest target is 12
		 -> main@result(COMRAM[12]), 

    f$.$buffer	PTR unsigned char  size(2) Largest target is 0

    f$.$source	PTR const unsigned char  size(2) Largest target is 0

    fputc@fp	PTR struct _IO_FILE size(1) Largest target is 12
		 -> sprintf@f(COMRAM[12]), 

    fputc@fp$.$buffer	PTR unsigned char  size(2) Largest target is 0

    fputc@fp$.$source	PTR const unsigned char  size(2) Largest target is 0

    gpio_pin_direction_intialize@_pin_config	PTR const struct . size(1) Largest target is 8
		 -> keypad_1(COMRAM[8]), keypad_1$keypad_colomns_pins(COMRAM[4]), keypad_1$keypad_row_pins(COMRAM[4]), lcd_1(COMRAM[6]), 
		 -> lcd_1$lcd_data(COMRAM[4]), led_initialize@pin_obj(COMRAM[1]), relay_initialize@pin_obj(COMRAM[1]), 

    gpio_pin_intialize@_pin_config	PTR const struct . size(1) Largest target is 8
		 -> keypad_1(COMRAM[8]), keypad_1$keypad_colomns_pins(COMRAM[4]), keypad_1$keypad_row_pins(COMRAM[4]), lcd_1(COMRAM[6]), 
		 -> lcd_1$lcd_data(COMRAM[4]), led_initialize@pin_obj(COMRAM[1]), relay_initialize@pin_obj(COMRAM[1]), 

    gpio_pin_read_logic@_pin_config	PTR const struct . size(1) Largest target is 8
		 -> keypad_1(COMRAM[8]), keypad_1$keypad_colomns_pins(COMRAM[4]), 

    gpio_pin_read_logic@logic	PTR enum E2978 size(1) Largest target is 1
		 -> button_read_state@pin_logic_status(COMRAM[1]), keypad_get_value@column_logic(COMRAM[1]), 

    gpio_pin_write_logic@_pin_config	PTR const struct . size(1) Largest target is 8
		 -> keypad_1(COMRAM[8]), keypad_1$keypad_colomns_pins(COMRAM[4]), keypad_1$keypad_row_pins(COMRAM[4]), lcd_1(COMRAM[6]), 
		 -> lcd_1$lcd_data(COMRAM[4]), led_initialize@pin_obj(COMRAM[1]), led_turn_off@pin_obj(COMRAM[1]), led_turn_on@pin_obj(COMRAM[1]), 
		 -> relay_initialize@pin_obj(COMRAM[1]), relay_turn_off@pin_obj(COMRAM[1]), relay_turn_on@pin_obj(COMRAM[1]), 

    keypad_get_value@_keypad_obj	PTR const struct . size(1) Largest target is 8
		 -> keypad_1(COMRAM[8]), 

    keypad_get_value@keypad_value	PTR unsigned char  size(1) Largest target is 1
		 -> main@KeypadValue(COMRAM[1]), 

    keypad_initialize@_keypad_obj	PTR const struct . size(1) Largest target is 8
		 -> keypad_1(COMRAM[8]), 

    lat_registers	PTR volatile unsigned char [5] size(2) Largest target is 1
		 -> LATA(BITBIGSFRll[1]), LATB(BITBIGSFRlh[1]), LATC(BITBIGSFRlh[1]), LATD(BITBIGSFRlh[1]), 
		 -> LATE(BITBIGSFRlh[1]), 

    lcd_4bit_initialize@lcd	PTR const struct . size(1) Largest target is 6
		 -> lcd_1(COMRAM[6]), 

    lcd_4bit_send_char_data@lcd	PTR const struct . size(1) Largest target is 6
		 -> lcd_1(COMRAM[6]), 

    lcd_4bit_send_char_data_pos@lcd	PTR const struct . size(1) Largest target is 6
		 -> lcd_1(COMRAM[6]), 

    lcd_4bit_send_command@lcd	PTR const struct . size(1) Largest target is 6
		 -> lcd_1(COMRAM[6]), 

    lcd_4bit_send_string_pos@lcd	PTR const struct . size(1) Largest target is 6
		 -> lcd_1(COMRAM[6]), 

    lcd_4bit_send_string_pos@str	PTR unsigned char  size(2) Largest target is 19
		 -> main@result(COMRAM[12]), STR_4(CODE[18]), STR_5(CODE[8]), STR_6(CODE[19]), 

    lcd_4bits_send_enable_signal@lcd	PTR const struct . size(1) Largest target is 6
		 -> lcd_1(COMRAM[6]), 

    lcd_4bits_set_cursor@lcd	PTR const struct . size(1) Largest target is 6
		 -> lcd_1(COMRAM[6]), 

    lcd_send_4bits@lcd	PTR const struct . size(1) Largest target is 6
		 -> lcd_1(COMRAM[6]), 

    memset@dest	PTR void  size(1) Largest target is 12
		 -> main@result(COMRAM[12]), 

    memset@p	PTR unsigned char  size(1) Largest target is 12
		 -> main@result(COMRAM[12]), 

    Number_return@arr	PTR unsigned char  size(1) Largest target is 6
		 -> main@FirstNumber(COMRAM[6]), main@SecondNumber(COMRAM[6]), 

    port_registers	PTR volatile unsigned char [5] size(2) Largest target is 1
		 -> PORTA(BITBIGSFRll[1]), PORTB(BITBIGSFRll[1]), PORTC(BITBIGSFRll[1]), PORTD(BITBIGSFRll[1]), 
		 -> PORTE(BITBIGSFRll[1]), 

    S1278$buffer	PTR unsigned char  size(2) Largest target is 0

    S1278$source	PTR const unsigned char  size(2) Largest target is 0

    sp__memset	PTR void  size(1) Largest target is 12
		 -> main@result(COMRAM[12]), 

    sprintf@ap	PTR void [1] size(1) Largest target is 2
		 -> ?_sprintf(COMRAM[2]), 

    sprintf@fmt	PTR const unsigned char  size(1) Largest target is 3
		 -> STR_1(CODE[3]), STR_2(CODE[3]), STR_3(CODE[3]), 

    sprintf@s	PTR unsigned char  size(1) Largest target is 12
		 -> main@result(COMRAM[12]), 

    tris_registers	PTR volatile unsigned char [5] size(2) Largest target is 1
		 -> TRISA(BITBIGSFRll[1]), TRISB(BITBIGSFRh[1]), TRISC(BITBIGSFRh[1]), TRISD(BITBIGSFRh[1]), 
		 -> TRISE(BITBIGSFRh[1]), 

    vfpfcnvrt@ap	PTR PTR void  size(1) Largest target is 1
		 -> sprintf@ap(COMRAM[1]), 

    vfpfcnvrt@cp	PTR unsigned char  size(1) Largest target is 3
		 -> STR_1(CODE[3]), STR_2(CODE[3]), STR_3(CODE[3]), 

    vfpfcnvrt@fmt	PTR PTR unsigned char  size(1) Largest target is 1
		 -> vfprintf@cfmt(COMRAM[1]), 

    vfpfcnvrt@fp	PTR struct _IO_FILE size(1) Largest target is 12
		 -> sprintf@f(COMRAM[12]), 

    vfprintf@ap	PTR PTR void  size(1) Largest target is 1
		 -> sprintf@ap(COMRAM[1]), 

    vfprintf@cfmt	PTR unsigned char  size(1) Largest target is 3
		 -> STR_1(CODE[3]), STR_2(CODE[3]), STR_3(CODE[3]), 

    vfprintf@fmt	PTR const unsigned char  size(1) Largest target is 3
		 -> STR_1(CODE[3]), STR_2(CODE[3]), STR_3(CODE[3]), 

    vfprintf@fp	PTR struct _IO_FILE size(1) Largest target is 12
		 -> sprintf@f(COMRAM[12]), 


Critical Paths under _main in COMRAM

    _main->_convert_uint16_to_string
    _lcd_4bit_send_string_pos->_lcd_4bits_set_cursor
    _lcd_4bit_send_char_data_pos->_lcd_4bits_set_cursor
    _lcd_4bits_set_cursor->_lcd_4bit_send_command
    _lcd_4bit_send_char_data->_lcd_send_4bits
    _keypad_get_value->_gpio_pin_write_logic
    _convert_uint16_to_string->_sprintf
    _sprintf->_vfprintf
    _vfprintf->_vfpfcnvrt
    _vfpfcnvrt->_abs
    _abs->___awmod
    _ecu_layer_intialize->_lcd_4bit_initialize
    _lcd_4bit_initialize->_lcd_4bit_send_command
    _lcd_4bit_send_command->_lcd_send_4bits
    _lcd_send_4bits->_gpio_pin_write_logic
    _lcd_4bits_send_enable_signal->_gpio_pin_write_logic
    _keypad_initialize->_gpio_pin_intialize
    _gpio_pin_intialize->_gpio_pin_write_logic
    _Number_return->___wmul

Critical Paths under _main in BANK0

    None.

Critical Paths under _main in BANK1

    None.

Critical Paths under _main in BANK2

    None.

Critical Paths under _main in BANK3

    None.

Critical Paths under _main in BANK4

    None.

Critical Paths under _main in BANK5

    None.

Critical Paths under _main in BANK6

    None.

Critical Paths under _main in BANK7

    None.

Critical Paths under _main in BANK8

    None.

Critical Paths under _main in BANK9

    None.

Critical Paths under _main in BANK10

    None.

Critical Paths under _main in BANK11

    None.

Critical Paths under _main in BANK12

    None.

Critical Paths under _main in BANK13

    None.

Critical Paths under _main in BANK14

    None.

Critical Paths under _main in BANK15

    None.

Call Graph Tables:

 ---------------------------------------------------------------------------------
 (Depth) Function   	        Calls       Base Space   Used Autos Params    Refs
 ---------------------------------------------------------------------------------
 (0) _main                                                35    35      0  141125
                                             46 COMRAM    35    35      0
                      _Number_return
                            ___lwdiv
                             ___wmul
              _application_intialize
                    _clearDataArrays
           _convert_uint16_to_string
                   _keypad_get_value
        _lcd_4bit_send_char_data_pos
              _lcd_4bit_send_command
           _lcd_4bit_send_string_pos
 ---------------------------------------------------------------------------------
 (1) _lcd_4bit_send_string_pos                             6     1      5   37306
                                             20 COMRAM     6     1      5
            _lcd_4bit_send_char_data
               _lcd_4bits_set_cursor
 ---------------------------------------------------------------------------------
 (1) _lcd_4bit_send_char_data_pos                          5     1      4   37567
                                             20 COMRAM     5     1      4
            _lcd_4bit_send_char_data
               _lcd_4bits_set_cursor
 ---------------------------------------------------------------------------------
 (2) _lcd_4bits_set_cursor                                 6     3      3   19209
                                             14 COMRAM     6     3      3
              _lcd_4bit_send_command
 ---------------------------------------------------------------------------------
 (2) _lcd_4bit_send_char_data                              3     1      2   16680
                                             11 COMRAM     3     1      2
               _gpio_pin_write_logic
       _lcd_4bits_send_enable_signal
                     _lcd_send_4bits
 ---------------------------------------------------------------------------------
 (1) _keypad_get_value                                     8     6      2    6112
                                              8 COMRAM     8     6      2
                _gpio_pin_read_logic
               _gpio_pin_write_logic
 ---------------------------------------------------------------------------------
 (2) _gpio_pin_read_logic                                  7     5      2     460
                                              0 COMRAM     7     5      2
 ---------------------------------------------------------------------------------
 (1) _convert_uint16_to_string                             4     1      3    5091
                                             42 COMRAM     4     1      3
                            ___lwdiv (ARG)
                             ___wmul (ARG)
                             _memset
                            _sprintf
 ---------------------------------------------------------------------------------
 (2) _sprintf                                             19    15      4    3591
                                             25 COMRAM    17    13      4
                           _vfprintf
 ---------------------------------------------------------------------------------
 (3) _vfprintf                                             4     1      3    2936
                                             21 COMRAM     4     1      3
                          _vfpfcnvrt
 ---------------------------------------------------------------------------------
 (4) _vfpfcnvrt                                           11     8      3    2586
                                             10 COMRAM    11     8      3
                            ___awdiv
                            ___awmod
                                _abs
                              _fputc
 ---------------------------------------------------------------------------------
 (5) _fputc                                                8     5      3     782
                                              0 COMRAM     8     5      3
                              _putch
 ---------------------------------------------------------------------------------
 (6) _putch                                                1     1      0       0
 ---------------------------------------------------------------------------------
 (5) _abs                                                  4     2      2     142
                                              6 COMRAM     4     2      2
                            ___awmod (ARG)
 ---------------------------------------------------------------------------------
 (5) ___awmod                                              6     2      4     448
                                              0 COMRAM     6     2      4
 ---------------------------------------------------------------------------------
 (5) ___awdiv                                              8     4      4     452
                                              0 COMRAM     8     4      4
 ---------------------------------------------------------------------------------
 (2) _memset                                               6     1      5     780
                                              0 COMRAM     6     1      5
 ---------------------------------------------------------------------------------
 (1) _clearDataArrays                                      3     1      2     394
                                              0 COMRAM     3     1      2
 ---------------------------------------------------------------------------------
 (1) _application_intialize                                0     0      0   32419
                _ecu_layer_intialize
 ---------------------------------------------------------------------------------
 (2) _ecu_layer_intialize                                  0     0      0   32419
                  _keypad_initialize
                _lcd_4bit_initialize
 ---------------------------------------------------------------------------------
 (3) _lcd_4bit_initialize                                  4     3      1   25543
                                             14 COMRAM     4     3      1
                 _gpio_pin_intialize
              _lcd_4bit_send_command
 ---------------------------------------------------------------------------------
 (3) _lcd_4bit_send_command                                3     1      2   18504
                                             11 COMRAM     3     1      2
               _gpio_pin_write_logic
       _lcd_4bits_send_enable_signal
                     _lcd_send_4bits
 ---------------------------------------------------------------------------------
 (4) _lcd_send_4bits                                       3     1      2    5709
                                              8 COMRAM     3     1      2
               _gpio_pin_write_logic
 ---------------------------------------------------------------------------------
 (4) _lcd_4bits_send_enable_signal                         3     2      1    5271
                                              8 COMRAM     2     1      1
               _gpio_pin_write_logic
 ---------------------------------------------------------------------------------
 (3) _keypad_initialize                                    4     3      1    6876
                                             11 COMRAM     4     3      1
                 _gpio_pin_intialize
 ---------------------------------------------------------------------------------
 (4) _gpio_pin_intialize                                   3     2      1    6572
                                              8 COMRAM     3     2      1
       _gpio_pin_direction_intialize
               _gpio_pin_write_logic
 ---------------------------------------------------------------------------------
 (5) _gpio_pin_write_logic                                 8     6      2    4891
                                              0 COMRAM     8     6      2
 ---------------------------------------------------------------------------------
 (5) _gpio_pin_direction_intialize                         7     6      1     331
                                              0 COMRAM     7     6      1
 ---------------------------------------------------------------------------------
 (1) ___lwdiv                                              7     3      4     314
                                              0 COMRAM     7     3      4
 ---------------------------------------------------------------------------------
 (1) _Number_return                                        9     7      2    1403
                                              6 COMRAM     9     7      2
                             ___wmul
 ---------------------------------------------------------------------------------
 (1) ___wmul                                               6     2      4     963
                                              0 COMRAM     6     2      4
 ---------------------------------------------------------------------------------
 Estimated maximum stack depth 6
 ---------------------------------------------------------------------------------

 Call Graph Graphs:

 _main (ROOT)
   _Number_return
     ___wmul
   ___lwdiv
   ___wmul
   _application_intialize
     _ecu_layer_intialize
       _keypad_initialize
         _gpio_pin_intialize
           _gpio_pin_direction_intialize
           _gpio_pin_write_logic
       _lcd_4bit_initialize
         _gpio_pin_intialize
         _lcd_4bit_send_command
           _gpio_pin_write_logic
           _lcd_4bits_send_enable_signal
             _gpio_pin_write_logic
           _lcd_send_4bits
             _gpio_pin_write_logic
   _clearDataArrays
   _convert_uint16_to_string
     ___lwdiv (ARG)
     ___wmul (ARG)
     _memset (ARG)
     _sprintf (ARG)
       _vfprintf
         _vfpfcnvrt
           ___awdiv
           ___awmod
           _abs
             ___awmod (ARG)
           _fputc
             _putch
   _keypad_get_value
     _gpio_pin_read_logic
     _gpio_pin_write_logic
   _lcd_4bit_send_char_data_pos
     _lcd_4bit_send_char_data
       _gpio_pin_write_logic
       _lcd_4bits_send_enable_signal
       _lcd_send_4bits
     _lcd_4bits_set_cursor
       _lcd_4bit_send_command
   _lcd_4bit_send_command
   _lcd_4bit_send_string_pos
     _lcd_4bit_send_char_data
     _lcd_4bits_set_cursor

 Address spaces:
Name               Size   Autos  Total    Cost      Usage
BIGRAM             F7F      0       0      40        0.0%
EEDATA             400      0       0       0        0.0%
BITBANK14          100      0       0      32        0.0%
BANK14             100      0       0      33        0.0%
BITBANK13          100      0       0      30        0.0%
BANK13             100      0       0      31        0.0%
BITBANK12          100      0       0      28        0.0%
BANK12             100      0       0      29        0.0%
BITBANK11          100      0       0      26        0.0%
BANK11             100      0       0      27        0.0%
BITBANK10          100      0       0      24        0.0%
BANK10             100      0       0      25        0.0%
BITBANK9           100      0       0      22        0.0%
BANK9              100      0       0      23        0.0%
BITBANK8           100      0       0      20        0.0%
BANK8              100      0       0      21        0.0%
BITBANK7           100      0       0      18        0.0%
BANK7              100      0       0      19        0.0%
BITBANK6           100      0       0      16        0.0%
BANK6              100      0       0      17        0.0%
BITBANK5           100      0       0      14        0.0%
BANK5              100      0       0      15        0.0%
BITBANK4           100      0       0      12        0.0%
BANK4              100      0       0      13        0.0%
BITBANK3           100      0       0      10        0.0%
BANK3              100      0       0      11        0.0%
BITBANK2           100      0       0       8        0.0%
BANK2              100      0       0       9        0.0%
BITBANK1           100      0       0       6        0.0%
BANK1              100      0       0       7        0.0%
BITBANK15           80      0       0      34        0.0%
BANK15              80      0       0      35        0.0%
BITBANK0            80      0       0       4        0.0%
BANK0               80      0      2B       5       33.6%
BITCOMRAM           7F      0       0       0        0.0%
COMRAM              7F     51      7F       1      100.0%
BITBIGSFRh          69      0       0      36        0.0%
BITBIGSFRlh          4      0       0      37        0.0%
BITBIGSFRll          4      0       0      38        0.0%
BIGSFR               0      0       0     200        0.0%
BITSFR               0      0       0     200        0.0%
SFR                  0      0       0     200        0.0%
STACK                0      0       0       2        0.0%
NULL                 0      0       0       0        0.0%
ABS                  0      0      AA      39        0.0%
DATA                 0      0      AA       3        0.0%
CODE                 0      0       0       0        0.0%


Microchip Technology PIC18 Macro Assembler V2.45 build 20230818022343 
Symbol Table                                                                                   Sun Oct 01 21:20:23 2023

                        ?_lcd_send_4bits 0009                                       l73 2086  
                                     l83 218A                                       l68 1948  
                                     l78 2032                             ___awdiv@sign 0006  
                    ___wmul@multiplicand 0003                                      l103 1CBE  
                                    l212 1ABC                                      l223 1DD4  
                                    l224 1DDC                                      l401 1654  
                                    l218 224A                                      l420 1764  
                                    l183 214E                                      l503 116C  
                                    l168 20D2                                      l441 1FDE  
                                    l353 22AC                                      l281 185E  
                                    l178 1EB8                                      l267 1F1E  
                                    l523 22BC                                      l427 1D62  
                                    l526 2270                                      l770 1B6C  
                                    l757 1A0C     __end_of_lcd_4bits_send_enable_signal 2150  
           _lcd_4bits_send_enable_signal 2112                     keypad_initialize@ret 000D  
                                    _abs 21C0                                      _ret 00AA  
                           ___awmod@sign 0006                      led_initialize@F3058 007F  
                  relay_initialize@F3052 007B                                      wreg 0FE8  
            lcd_send_4bits@_data_command 000A                ?_convert_uint16_to_string 002B  
                                   l1024 1E50                                     l1017 1E48  
                                   l1210 21BE                                     l1203 2222  
                                   ?_abs 0007                                     l3000 2224  
                                   l3010 1D78                                     l3002 222C  
                                   l3012 1DAC                                     l3004 2236  
                                   l3020 1796                                     l1261 21F2  
                                   l3014 1DB0                                     l3006 2238  
                                   l1254 2110                                     l3022 179E  
                                   l3008 1D64                                     l1248 152A  
                                   l3040 17C6                                     l3016 1766  
                                   l1273 1C16                                     l1258 21DA  
                                   l3050 17E6                                     l3042 17D4  
                                   l3034 17A6                                     l3018 1786  
                                   l2500 1560                                     l1284 22BE  
                                   l3060 183A                                     l3052 17F8  
                                   l3044 17E2                                     l3036 17B4  
                                   l3028 17A2                                     l2510 1652  
                                   l2502 1564                                     l3070 22B8  
                                   l3062 183C                                     l3054 1808  
                                   l3038 17B6                                     l3080 1E08  
                                   l3072 1DDE                                     l2504 15BA  
                                   l2520 1E62                                     l2600 1B14  
                                   l3064 184C                                     l3056 1828  
                                   l3090 1E3C                                     l3082 1E16  
                                   l3074 1DE6                                     l2506 160A  
                                   l2530 2126                                     l2522 1E66  
                                   l2602 1B22                                     l2610 1B4C  
                                   l3058 182A                                     l3066 185C  
                                   l3092 1E42                                     l3084 1E1C  
                                   l3076 1DF8                                     l2508 1612  
                                   l2532 2132                                     l2540 194E  
                                   l2612 1B5C                                     l2604 1B38  
                                   l2620 1B7E                                     l3500 11B6  
                                   l3086 1E32                                     l3078 1E00  
                                   l2534 2142                                     l2526 2112  
                                   l2518 1E52                                     l2710 1874  
                                   l2550 197E                                     l2542 195C  
                                   l2614 1B64                                     l2606 1B40  
                                   l2622 1B8E                                     l2702 1508  
                                   l3510 11E6                                     l3502 11BE  
                                   l3088 1E3A                                     l2480 1692  
                                   l2640 1FB6                                     l2528 2122  
                                   l2720 1894                                     l2712 187C  
                                   l2560 19AC                                     l2552 1982  
                                   l2544 1964                                     l2608 1B46  
                                   l2632 21C0                                     l2624 1B98  
                                   l2800 1D04                                     l3520 1222  
                                   l3512 11F8                                     l3504 11C2  
                                   l2482 16E8                                     l2474 1656  
                                   l2642 1FBE                                     l2650 2044  
                                   l2730 18CE                                     l2722 18A0  
                                   l2714 1890                                     l2570 19E0  
                                   l2562 19BA                                     l2554 198A  
                                   l2546 1968                                     l2538 194A  
                                   l2634 21CE                                     l2626 1BB4  
                                   l2618 1B6E                                     l2802 1D0C  
                                   l2810 1FF0                                     l3530 128C  
                                   l3522 1224                                     l3514 1210  
                                   l3506 11C6                                     l2476 166A  
                                   l2644 1FDC                                     l2636 1F82  
                                   l2652 204C                                     l2740 1914  
                                   l2732 18EA                                     l2724 18A2  
                                   l2708 1860                                     l2572 19E6  
                                   l2564 19C0                                     l2556 199C  
                                   l2548 1976                                     l2628 1BE6  
                                   l2660 1396                                     l2804 1D60  
                                   l2812 1FF8                                     l2820 1A22  
                                   l3532 12A8                                     l3540 133A  
                                   l3524 123C                                     l3516 1214  
                                   l3508 11D6                                     l3460 107E  
                                   l2486 1738                                     l2478 168A  
                                   l2638 1F96                                     l2654 2084  
                                   l2742 1920                                     l2734 18F0  
                                   l2726 18B2                                     l2902 2294  
                                   l2566 19D6                                     l2558 19A4  
                                   l2574 19EC                                     l2590 1ADC  
                                   l2582 1ABE                                     l2670 13D4  
                                   l2662 139E                                     l2814 2030  
                                   l2830 1A6C                                     l2822 1A2A  
                                   l2910 2150                                     l3542 1356  
                                   l3630 1314                                     l3534 12D4  
                                   l3518 1220                                     l3526 1244  
                                   l3470 10E8                                     l3462 109E  
                                   l3454 1042                                     l2904 224C  
                                   l2496 152C                                     l2488 1762  
                                   l2752 1EBA                                     l2648 2034  
                                   l2744 192C                                     l2736 18FC  
                                   l2728 18C2                                     l2576 19FC  
                                   l2568 19DE                                     l2592 1AEA  
                                   l2584 1AC2                                     l2680 145A  
                                   l2672 13F0                                     l2664 13AA  
                                   l2808 1FE0                                     l3632 1A94  
                                   l2824 1A30                                     l2832 1A80  
                                   l2912 2160                                     l2920 1C18  
                                   l3528 1270                                     l3480 1114  
                                   l3472 10F4                                     l3464 10BE  
                                   l3456 105A                                     l2906 2268  
                                   l2498 1540                                     l3634 174C  
                                   l2762 1EDE                                     l2754 1ED2  
                                   l2746 1938                                     l2738 1908  
                                   l2578 1A04                                     l2594 1AF2  
                                   l2586 1AD0                                     l2690 14B8  
                                   l2682 1476                                     l2674 1408  
                                   l2666 13AE                                     l2658 1374  
                                   l2826 1A44                                     l2834 1ABA  
                                   l2818 1A0E                                     l2914 2168  
                                   l2930 1C86                                     l2922 1C2C  
                                   l3538 1300                                     l3490 1170  
                                   l3482 1124                                     l3474 1100  
                                   l3466 10D4                                     l3458 105E  
                                   l3636 163C                                     l2764 1EE8  
                                   l2780 1F1C                                     l2756 1EDA  
                                   l2748 1946                                     l2596 1B04  
                                   l2588 1AD8                                     l2692 14CA  
                                   l2684 1488                                     l2676 1412  
                                   l2668 13B8                                     l2828 1A58  
                                   l2916 2188                                     l2932 1C8A  
                                   l2924 1C3E                                     l3492 1188  
                                   l3484 1136                                     l3476 1100  
                                   l3468 10E4                                     l2774 1EFE  
                                   l2766 1EEA                                     l2598 1B0C  
                                   l2694 14E4                                     l2686 1498  
                                   l2678 142A                                     l2790 2108  
                                   l2934 1CBC                                     l2926 1C46  
                                   l3494 1190                                     l3486 1148  
                                   l3478 1104                                     l2776 1F0A  
                                   l2768 1EFA                                     l2688 14A8  
                                   l2696 14E6                                     l2784 20D4  
                                   l2928 1C5A                                     l3496 119C  
                                   l3488 115A                                     l2778 1F0C  
                                   l2882 21F4                                     l2698 14FC  
                                   l2786 20DC                                     l2890 218C  
                                   l2794 1CC0                                     l3498 119E  
                                   l2884 21FC                                     l2788 20EC  
                                   l2892 2194                                     l2796 1CD4  
                                   l2886 2206                                     l2894 219C  
                                   l2990 209C                                     l2798 1CE4  
                                   l2888 2208                                     l2896 21A4  
                                   l2992 20A4                                     l2898 21B4  
                                   l2994 20BC                                     l2996 20D0  
                                   l2988 2088                                     STR_1 103E  
                                   STR_2 103E                                     STR_4 1024  
                                   STR_5 1036                                     STR_6 1011  
                                   u2010 2222                                     u2011 221E  
                                   u2020 2160                                     u2021 215C  
                                   u2030 1C2C                                     u2031 1C28  
                                   u2200 1808                                     u2040 1C3E  
                                   u2201 1804                                     u2041 1C3A  
                                   u2210 183A                                     u2050 1C80  
                                   u2211 1836                                     u2140 209C  
                                   u2220 184C                                     u2060 1CAC  
                                   u2141 2098                                     u2221 1848  
                                   _LATA 0F89                                     u2230 1DF8  
                                   u1510 1628                                     u1430 166A  
                                   u2150 224A                                     u2070 1CBC  
                                   _LATB 0F8A                                     u2231 1DF4  
                                   u1511 1622                                     u1431 1666  
                                   u2151 2246                                     u2071 1CB8  
                                   _LATC 0F8B                                     u2160 1DD4  
                                   u2240 1E16                                     u1520 162A  
                                   u1504 15D8                                     u1440 168A  
                                   u1600 19FC                                     _LATD 0F8C  
                                   u2161 1DD0                                     u2241 1E12  
                                   u1505 15D4                                     u1441 1686  
                                   u1601 19F8                                     u2057 1C76  
                                   _LATE 0F8D                                     u2250 1E32  
                                   u1530 1E62                                     u1610 1AD0  
                                   u2170 1786                                     u2251 1E2E  
                                   u1531 1E5E                                     u1611 1ACC  
                                   u2171 1782                                     u2067 1CA2  
                                   u1540 2122                                     u1620 1AEA  
                                   u1700 1BE6                                     u2180 1796  
                                   u1541 211E                                     u1621 1AE6  
                                   u1701 1BE2                                     u2181 1792  
                                   u1470 1540                                     u1454 16B0  
                                   u1550 195C                                     u1630 1B04  
                                   u1710 21CE                                     u2190 17C6  
                                   u1471 153C                                     u1455 16AC  
                                   u1551 1958                                     u1631 1B00  
                                   u1711 21CA                                     u2191 17C2  
                                   u1480 1560                                     u1464 1706  
                                   u1720 1F96                                     u1560 1976  
                                   u1640 1B22                                     u1800 1488  
                                   u1481 155C                                     u1465 1702  
                                   u1721 1F92                                     u1561 1972  
                                   u1641 1B1E                                     u1801 1484  
                                   u1730 1FB6                                     u1570 199C  
                                   u1650 1B38                                     u1810 1498  
                                   u1731 1FB2                                     u1571 1998  
                                   u1651 1B34                                     u1811 1494  
                                   u1740 2044                                     u1580 19BA  
                                   u1660 1B5C                                     u1820 14A8  
                                   u1900 2108                                     u1741 2040  
                                   u1581 19B6                                     u1661 1B58  
                                   u1821 14A4                                     u1901 2104  
                                   u1494 1582                                     u1590 19D6  
                                   u1670 1B7E                                     u1830 14B8  
                                   u1750 1396                                     u1910 1CD4  
                                   u2630 1124                                     u1495 157E  
                                   u1591 19D2                                     u1671 1B7A  
                                   u1831 14B4                                     u1751 1392  
                                   u1911 1CD0                                     u2631 1120  
                                   u1680 1B8E                                     u1840 14F8  
                                   u1760 13D4                                     u1920 1CE4  
                                   u2640 1136                                     u1681 1B8A  
                                   u1841 14F4                                     u1761 13D0  
                                   u1921 1CE0                                     u2641 1132  
                            main@counter 0050                                     u1850 1874  
                                   u1690 1BB4                                     u1770 13F0  
                                   u1930 1D04                                     u2650 1148  
                                   u1851 1870                                     u1691 1BB0  
                                   u1771 13EC                                     u1931 1D00  
                                   u2651 1144                                     u2707 10C8  
                                   u1860 18B2                                     u1780 1426  
                                   u2660 115A                                     u1861 18AE  
                                   u1781 1420                                     u2717 1360  
                                   u2661 1156                                     u1870 1ED2  
                                   u1790 1428                                     u1950 1FF0  
                                   u2670 116C                                     u1871 1ECE  
                                   u2727 17DA                                     u1951 1FEC  
                                   u2671 1168                                     u1880 1EFA  
                                   u1944 1D54                                     u1960 1A22  
                                   u2680 11E6                                     u1881 1EF6  
                                   u1945 1D50                                     u2737 1852  
                                   u1961 1A1E                                     u2681 11E2  
                                   u1890 1F1C                                     u2690 11F8  
                                   u1891 1F18                                     u2747 18B8  
                                   u2691 11F4                                     u2757 18D4  
                                   u2767 18EC                                     u2777 2138  
                ??_application_intialize 0013                                     abs@a 0007  
                                   _dbuf 0080           gpio_pin_read_logic@_pin_config 0001  
                                   _main 1042                                     _prec 0076  
                                   fsr0h 0FEA                                     fsr1h 0FE2  
                                   indf0 0FEF                                     fsr2h 0FDA  
                                   fsr0l 0FE9                                     indf1 0FE7  
                            main@number1 004C                                     indf2 0FDF  
                                   fsr1l 0FE1                              main@number2 004E  
                                   fsr2l 0FD9        lcd_4bit_send_char_data_pos@colomn 0017  
                                   prodh 0FF4                                     prodl 0FF3  
                                   start 0000                             ___param_bank 0000  
                  _lcd_4bit_send_command 2034                                    ??_abs 0009  
                   _gpio_pin_write_logic 1656           lcd_4bit_send_string_pos@colomn 0017  
                                  ?_main 0001                          __end_of___awdiv 1A0E  
                        __end_of___awmod 1B6E                          ___awdiv@divisor 0003  
                           main@counter2 004B                             main@counter3 004A  
                        __end_of___lwdiv 1E52                          ___awdiv@counter 0005  
                    relay_turn_off@F3062 0079                             vfpfcnvrt@fmt 000C  
                                  _PORTA 0F80                                    _PORTB 0F81  
                                  _PORTC 0F82                                    _PORTD 0F83  
                                  _PORTE 0F84                                    _TRISA 0F92  
                                  _TRISB 0F93                                    _TRISC 0F94  
                                  _TRISD 0F95                                    _TRISE 0F96  
          ?_lcd_4bits_send_enable_signal 0009                 __end_of_keypad_get_value 1860  
                                  _lcd_1 006E                                    _flags 0078  
                                  _fputc 1B6E                                    _width 0074  
                                  _putch 22BE                                    tablat 0FF5  
                                  status 0FD8                          __end_of_sprintf 21C0  
     keypad_get_value@l_coloumns_counter 0010                          __initialization 1F20  
                      ??_clearDataArrays 0003                      keypad_get_value@ret 000C  
                           __end_of_main 1374                    ?_gpio_pin_write_logic 0001  
               gpio_pin_read_logic@logic 0002                            _lat_registers 0052  
                                 ??_main 002F                            __activetblptr 0002  
                       led_turn_on@F3063 007E                          main@FirstNumber 0031  
                                 ?_fputc 0001                         ___awdiv@dividend 0001  
                                 ?_putch 0001                            vfpfcnvrt@done 000F  
              keypad_get_value@l_counter 000E         __end_of_lcd_4bit_send_string_pos 1CC0  
                  __end_of_Number_return 1DDE                   ?_lcd_4bit_send_command 000C  
                           vfprintf@cfmt 0019                                   ___wmul 224C  
                              ??___awdiv 0005                                ??___awmod 0005  
                              ??___lwdiv 0005                           Number_return@i 000E  
                                 _memset 21F4                                   clear_0 1F66  
                                 clear_1 1F72                         ___awdiv@quotient 0007  
                        ___awmod@divisor 0003                            main@operation 0049  
                                 isa$std 0001                          ___awmod@counter 0005  
gpio_pin_direction_intialize@_pin_config 0001                                   fputc@c 0001  
                           __pdataCOMRAM 0052                          main@KeypadValue 0051  
                           __mediumconst 0000                                   tblptrh 0FF7  
                                 tblptrl 0FF6                                   tblptru 0FF8  
                                 putch@c 0001                         __end_of_vfprintf 2112  
                              ??_sprintf 001E                               __accesstop 0080  
                __end_of__initialization 1F78               lcd_4bits_set_cursor@colomn 0011  
                          ___rparam_used 0001                         ??_lcd_send_4bits 000B  
                _lcd_4bit_send_char_data 1FE0                   ??_gpio_pin_write_logic 0003  
                         __pcstackCOMRAM 0001                             __pidataBANK0 22AE  
                          __end_of_fputc 1C18                            __end_of_putch 22C0  
               lcd_4bit_send_command@lcd 000C                 lcd_4bit_send_command@ret 000E  
           ?_lcd_4bit_send_char_data_pos 0015                                  ??_fputc 0004  
                                ??_putch 0001                               __pbssBANK0 0080  
        lcd_4bits_send_enable_signal@lcd 0009             __end_of_lcd_4bits_set_cursor 1ABE  
          __end_of_application_intialize 22BE                                  ?___wmul 0001  
                      led_turn_off@F3068 007D              convert_uint16_to_string@ret 002E  
            convert_uint16_to_string@str 002D                                  ?_memset 0001  
              ?_lcd_4bit_send_string_pos 0015                     led_turn_toggle@F3073 007C  
                      ?_keypad_get_value 0009                       ??_keypad_get_value 000B  
                        _clearDataArrays 2224                               _btn_values 1001  
                         _tris_registers 005C                ??_lcd_4bit_send_char_data 000E  
 lcd_4bit_initialize@l_data_pins_counter 0011                      clearDataArrays@size 0002  
                                __Hparam 0000                                  __Lparam 0000  
                    _ecu_layer_intialize 2294                                  ___awdiv 194A  
                    _gpio_pin_read_logic 1CC0                                  ___awmod 1ABE  
                     Number_return@count 0008                                  ___lwdiv 1DDE  
                              ?_vfprintf 0016                             __psmallconst 1000  
             __end_of_gpio_pin_intialize 1FE0                                  __pcinit 1F20  
                                __ramtop 1000                                  __ptext0 1042  
                                __ptext1 1C18                                  __ptext2 2150  
                                __ptext3 1A0E                                  __ptext4 1FE0  
                                __ptext5 1766                                  __ptext6 1CC0  
                                __ptext7 2088                                  __ptext8 218C  
                                __ptext9 20D4                 _convert_uint16_to_string 2088  
                       ___awmod@dividend 0001                     ?_ecu_layer_intialize 0001  
                lcd_4bits_set_cursor@lcd 000F                  lcd_4bits_set_cursor@ret 0014  
                lcd_4bits_set_cursor@row 0010                     ?_gpio_pin_read_logic 0001  
                                _sprintf 218C                     end_of_initialization 1F78  
                      lcd_send_4bits@lcd 0009                        lcd_send_4bits@ret 000B  
                                fputc@fp 0003                                  memset@c 0002  
                                memset@n 0004                                  memset@p 0006  
                          __Lmediumconst 0000                  ??_lcd_4bit_send_command 000E  
                  gpio_pin_intialize@ret 000B                        __end_of_vfpfcnvrt 152C  
                                postdec1 0FE5                                  postdec2 0FDD  
                                postinc0 0FEE                                  postinc1 0FE6  
                                postinc2 0FDE                         vfpfcnvrt@convarg 0011  
                             ??_vfprintf 0019                      _lcd_4bit_initialize 1860  
        __end_of_lcd_4bit_send_char_data 2034            gpio_pin_intialize@_pin_config 0009  
                   _lcd_4bits_set_cursor 1A0E             keypad_get_value@column_logic 000D  
             lcd_4bit_send_char_data@lcd 000C                    ??_ecu_layer_intialize 0013  
             lcd_4bit_send_char_data@ret 000E                  __end_of_clearDataArrays 224C  
   __end_of_gpio_pin_direction_intialize 1656             _gpio_pin_direction_intialize 152C  
                  ??_gpio_pin_read_logic 0003          lcd_4bit_send_char_data_pos@data 0018  
                   ?_lcd_4bit_initialize 000F                               main@result 003D  
                     relay_turn_on@F3057 007A              lcd_4bit_send_string_pos@lcd 0015  
            lcd_4bit_send_string_pos@ret 001A              lcd_4bit_send_string_pos@row 0016  
            lcd_4bit_send_string_pos@str 0018                              vfpfcnvrt@ap 000D  
                            vfpfcnvrt@cp 0010                              vfpfcnvrt@fp 000B  
                         __end_of___wmul 2272                            __pidataCOMRAM 2272  
                         __end_of_memset 2224                    ?_lcd_4bits_set_cursor 000F  
                    start_initialization 1F20                         main@SecondNumber 0037  
          convert_uint16_to_string@value 002B                              __end_of_abs 21F4  
          ?_gpio_pin_direction_intialize 0001                    ??_lcd_4bit_initialize 0010  
                            vfprintf@fmt 0017                                 ??___wmul 0005  
                            __pdataBANK0 00A0                                 ??_memset 0006  
                             memset@dest 0001             lcd_4bit_send_command@command 000D  
                            __pbssCOMRAM 0074                         ?_clearDataArrays 0001  
           keypad_get_value@keypad_value 000A           ??_lcd_4bits_send_enable_signal 000A  
        gpio_pin_direction_intialize@ret 0007                                __pnvBANK0 00AA  
                       ___lwdiv@dividend 0001            keypad_initialize@rows_counter 000E  
                  _application_intialize 22B8                            _Number_return 1D64  
             ??_convert_uint16_to_string 002E          gpio_pin_write_logic@_pin_config 0001  
                               ?___awdiv 0001                                 ?___awmod 0001  
                       clearDataArrays@i 0003                                 ?___lwdiv 0001  
              gpio_pin_write_logic@logic 0002                   ??_lcd_4bits_set_cursor 0012  
      keypad_initialize@coloumns_counter 000F                              __smallconst 1000  
                     clearDataArrays@arr 0001                         ___lwdiv@quotient 0005  
                               ?_sprintf 001A                       _gpio_pin_intialize 1F82  
         ??_gpio_pin_direction_intialize 0002                           ___wmul@product 0005  
                    ?_gpio_pin_intialize 0009            __end_of_lcd_4bit_send_command 2088  
                         ?_Number_return 0007                                _vfpfcnvrt 1374  
               _lcd_4bit_send_string_pos 1C18                        ___wmul@multiplier 0001  
                   ??_gpio_pin_intialize 000A           lcd_4bit_send_char_data_pos@lcd 0015  
         lcd_4bit_send_char_data_pos@ret 0019           lcd_4bit_send_char_data_pos@row 0016  
    __end_of_lcd_4bit_send_char_data_pos 218C              _lcd_4bit_send_char_data_pos 2150  
                             vfpfcnvrt@c 0015                  gpio_pin_write_logic@ret 0008  
               ?_lcd_4bit_send_char_data 000C                                copy_data0 1F34  
                              copy_data1 1F54                        _keypad_initialize 1EBA  
                     ?_keypad_initialize 000C                   gpio_pin_read_logic@ret 0007  
          ??_lcd_4bit_send_char_data_pos 0019                   ?_application_intialize 0001  
                               __Hrparam 0000                               vfprintf@ap 0018  
                               __Lrparam 0000                               vfprintf@fp 0016  
                    ??_keypad_initialize 000D              __end_of_ecu_layer_intialize 22AE  
                             ?_vfpfcnvrt 000B                       __end_of_btn_values 1011  
            __end_of_gpio_pin_read_logic 1D64              keypad_get_value@_keypad_obj 0009  
                             sprintf@fmt 001B                          ___lwdiv@divisor 0003  
                        ___lwdiv@counter 0007                __end_of_keypad_initialize 1F20  
                               __ptext10 1374                                 __ptext11 1B6E  
                               __ptext20 1860                                 __ptext12 22BE  
                               __ptext21 2034                                 __ptext13 21C0  
                               __ptext30 224C                                 __ptext22 1E52  
                               __ptext14 1ABE                                 __ptext23 2112  
                               __ptext15 194A                                 __ptext24 1EBA  
                               __ptext16 21F4                                 __ptext25 1F82  
                               __ptext17 2224                                 __ptext26 1656  
                               __ptext18 22B8                                 __ptext27 152C  
                               __ptext19 2294                                 __ptext28 1DDE  
                               __ptext29 1D64                         Number_return@arr 0007  
                       Number_return@num 000C                                 _keypad_1 0066  
                        ??_Number_return 0009                         _keypad_get_value 1766  
       __end_of_convert_uint16_to_string 20D4                                 isa$xinst 0000  
                               _vfprintf 20D4                           _lcd_send_4bits 1E52  
            __end_of_lcd_4bit_initialize 194A           keypad_get_value@l_rows_counter 000F  
           __end_of_gpio_pin_write_logic 1766                                sprintf@ap 001E  
           keypad_initialize@_keypad_obj 000C                   __end_of_lcd_send_4bits 1EBA  
                            ??_vfpfcnvrt 000E                                 sprintf@f 001F  
                               sprintf@s 001A                           _port_registers 00A0  
            lcd_4bit_send_char_data@data 000D               ??_lcd_4bit_send_string_pos 001A  
                 lcd_4bit_initialize@lcd 000F                   lcd_4bit_initialize@ret 0012  
